Archive member included because of file (symbol)

c:/altera/13.0sp1/nios2eds/bin/gnu/h-i686-mingw32/bin/../lib/gcc/nios2-elf/4.1.2\libgcc.a(_fixunsdfsi.o)
                              obj/default/dm9000a.o (__fixunsdfsi)
c:/altera/13.0sp1/nios2eds/bin/gnu/h-i686-mingw32/bin/../lib/gcc/nios2-elf/4.1.2\libgcc.a(_si_to_sf.o)
                              obj/default/iniche_init.o (__floatsisf)
c:/altera/13.0sp1/nios2eds/bin/gnu/h-i686-mingw32/bin/../lib/gcc/nios2-elf/4.1.2\libgcc.a(_sf_to_si.o)
                              obj/default/iniche_init.o (__fixsfsi)
c:/altera/13.0sp1/nios2eds/bin/gnu/h-i686-mingw32/bin/../lib/gcc/nios2-elf/4.1.2\libgcc.a(_usi_to_sf.o)
                              obj/default/iniche_init.o (__floatunsisf)
c:/altera/13.0sp1/nios2eds/bin/gnu/h-i686-mingw32/bin/../lib/gcc/nios2-elf/4.1.2\libgcc.a(_addsub_df.o)
                              c:/altera/13.0sp1/nios2eds/bin/gnu/h-i686-mingw32/bin/../lib/gcc/nios2-elf/4.1.2\libgcc.a(_fixunsdfsi.o) (__subdf3)
c:/altera/13.0sp1/nios2eds/bin/gnu/h-i686-mingw32/bin/../lib/gcc/nios2-elf/4.1.2\libgcc.a(_mul_df.o)
                              obj/default/dm9000a.o (__muldf3)
c:/altera/13.0sp1/nios2eds/bin/gnu/h-i686-mingw32/bin/../lib/gcc/nios2-elf/4.1.2\libgcc.a(_ge_df.o)
                              c:/altera/13.0sp1/nios2eds/bin/gnu/h-i686-mingw32/bin/../lib/gcc/nios2-elf/4.1.2\libgcc.a(_fixunsdfsi.o) (__gedf2)
c:/altera/13.0sp1/nios2eds/bin/gnu/h-i686-mingw32/bin/../lib/gcc/nios2-elf/4.1.2\libgcc.a(_df_to_si.o)
                              c:/altera/13.0sp1/nios2eds/bin/gnu/h-i686-mingw32/bin/../lib/gcc/nios2-elf/4.1.2\libgcc.a(_fixunsdfsi.o) (__fixdfsi)
c:/altera/13.0sp1/nios2eds/bin/gnu/h-i686-mingw32/bin/../lib/gcc/nios2-elf/4.1.2\libgcc.a(_thenan_df.o)
                              c:/altera/13.0sp1/nios2eds/bin/gnu/h-i686-mingw32/bin/../lib/gcc/nios2-elf/4.1.2\libgcc.a(_addsub_df.o) (__thenan_df)
c:/altera/13.0sp1/nios2eds/bin/gnu/h-i686-mingw32/bin/../lib/gcc/nios2-elf/4.1.2\libgcc.a(_usi_to_df.o)
                              obj/default/dm9000a.o (__floatunsidf)
c:/altera/13.0sp1/nios2eds/bin/gnu/h-i686-mingw32/bin/../lib/gcc/nios2-elf/4.1.2\libgcc.a(_muldi3.o)
                              c:/altera/13.0sp1/nios2eds/bin/gnu/h-i686-mingw32/bin/../lib/gcc/nios2-elf/4.1.2\libgcc.a(_mul_df.o) (__muldi3)
c:/altera/13.0sp1/nios2eds/bin/gnu/h-i686-mingw32/bin/../lib/gcc/nios2-elf/4.1.2\libgcc.a(_clzsi2.o)
                              c:/altera/13.0sp1/nios2eds/bin/gnu/h-i686-mingw32/bin/../lib/gcc/nios2-elf/4.1.2\libgcc.a(_si_to_sf.o) (__clzsi2)
c:/altera/13.0sp1/nios2eds/bin/gnu/h-i686-mingw32/bin/../lib/gcc/nios2-elf/4.1.2\libgcc.a(_pack_sf.o)
                              c:/altera/13.0sp1/nios2eds/bin/gnu/h-i686-mingw32/bin/../lib/gcc/nios2-elf/4.1.2\libgcc.a(_si_to_sf.o) (__pack_f)
c:/altera/13.0sp1/nios2eds/bin/gnu/h-i686-mingw32/bin/../lib/gcc/nios2-elf/4.1.2\libgcc.a(_unpack_sf.o)
                              c:/altera/13.0sp1/nios2eds/bin/gnu/h-i686-mingw32/bin/../lib/gcc/nios2-elf/4.1.2\libgcc.a(_sf_to_si.o) (__unpack_f)
c:/altera/13.0sp1/nios2eds/bin/gnu/h-i686-mingw32/bin/../lib/gcc/nios2-elf/4.1.2\libgcc.a(_pack_df.o)
                              c:/altera/13.0sp1/nios2eds/bin/gnu/h-i686-mingw32/bin/../lib/gcc/nios2-elf/4.1.2\libgcc.a(_addsub_df.o) (__pack_d)
c:/altera/13.0sp1/nios2eds/bin/gnu/h-i686-mingw32/bin/../lib/gcc/nios2-elf/4.1.2\libgcc.a(_unpack_df.o)
                              c:/altera/13.0sp1/nios2eds/bin/gnu/h-i686-mingw32/bin/../lib/gcc/nios2-elf/4.1.2\libgcc.a(_addsub_df.o) (__unpack_d)
c:/altera/13.0sp1/nios2eds/bin/gnu/h-i686-mingw32/bin/../lib/gcc/nios2-elf/4.1.2\libgcc.a(_fpcmp_parts_df.o)
                              c:/altera/13.0sp1/nios2eds/bin/gnu/h-i686-mingw32/bin/../lib/gcc/nios2-elf/4.1.2\libgcc.a(_ge_df.o) (__fpcmp_parts_d)
c:/altera/13.0sp1/nios2eds/bin/gnu/h-i686-mingw32/bin/../lib/gcc/nios2-elf/4.1.2\libgcc.a(_clz.o)
                              c:/altera/13.0sp1/nios2eds/bin/gnu/h-i686-mingw32/bin/../lib/gcc/nios2-elf/4.1.2\libgcc.a(_clzsi2.o) (__clz_tab)
c:/altera/13.0sp1/nios2eds/bin/gnu/h-i686-mingw32/bin/../lib/gcc/nios2-elf/4.1.2/../../../../nios2-elf/lib\libc.a(lib_a-ctype_.o)
                              obj/default/network_utilities.o (__ctype_ptr)
c:/altera/13.0sp1/nios2eds/bin/gnu/h-i686-mingw32/bin/../lib/gcc/nios2-elf/4.1.2/../../../../nios2-elf/lib\libc.a(lib_a-exit.o)
                              obj/default/iniche_init.o (exit)
c:/altera/13.0sp1/nios2eds/bin/gnu/h-i686-mingw32/bin/../lib/gcc/nios2-elf/4.1.2/../../../../nios2-elf/lib\libc.a(lib_a-fprintf.o)
                              obj/default/alt_error_handler.o (fprintf)
c:/altera/13.0sp1/nios2eds/bin/gnu/h-i686-mingw32/bin/../lib/gcc/nios2-elf/4.1.2/../../../../nios2-elf/lib\libc.a(lib_a-fwrite.o)
                              obj/default/alt_error_handler.o (fwrite)
c:/altera/13.0sp1/nios2eds/bin/gnu/h-i686-mingw32/bin/../lib/gcc/nios2-elf/4.1.2/../../../../nios2-elf/lib\libc.a(lib_a-getc.o)
                              obj/default/network_utilities.o (getc)
c:/altera/13.0sp1/nios2eds/bin/gnu/h-i686-mingw32/bin/../lib/gcc/nios2-elf/4.1.2/../../../../nios2-elf/lib\libc.a(lib_a-impure.o)
                              obj/default/alt_error_handler.o (_impure_ptr)
c:/altera/13.0sp1/nios2eds/bin/gnu/h-i686-mingw32/bin/../lib/gcc/nios2-elf/4.1.2/../../../../nios2-elf/lib\libc.a(lib_a-memcpy.o)
                              obj/default/simple_socket_server.o (memcpy)
c:/altera/13.0sp1/nios2eds/bin/gnu/h-i686-mingw32/bin/../lib/gcc/nios2-elf/4.1.2/../../../../nios2-elf/lib\libc.a(lib_a-memmove.o)
                              obj/default/simple_socket_server.o (memmove)
c:/altera/13.0sp1/nios2eds/bin/gnu/h-i686-mingw32/bin/../lib/gcc/nios2-elf/4.1.2/../../../../nios2-elf/lib\libc.a(lib_a-memset.o)
                              obj/default/simple_socket_server.o (memset)
c:/altera/13.0sp1/nios2eds/bin/gnu/h-i686-mingw32/bin/../lib/gcc/nios2-elf/4.1.2/../../../../nios2-elf/lib\libc.a(lib_a-perror.o)
                              obj/default/alt_error_handler.o (perror)
c:/altera/13.0sp1/nios2eds/bin/gnu/h-i686-mingw32/bin/../lib/gcc/nios2-elf/4.1.2/../../../../nios2-elf/lib\libc.a(lib_a-printf.o)
                              obj/default/SSS_DE2_115.o (printf)
c:/altera/13.0sp1/nios2eds/bin/gnu/h-i686-mingw32/bin/../lib/gcc/nios2-elf/4.1.2/../../../../nios2-elf/lib\libc.a(lib_a-putc.o)
                              obj/default/network_utilities.o (putc)
c:/altera/13.0sp1/nios2eds/bin/gnu/h-i686-mingw32/bin/../lib/gcc/nios2-elf/4.1.2/../../../../nios2-elf/lib\libc.a(lib_a-putchar.o)
                              obj/default/iniche_init.o (putchar)
c:/altera/13.0sp1/nios2eds/bin/gnu/h-i686-mingw32/bin/../lib/gcc/nios2-elf/4.1.2/../../../../nios2-elf/lib\libc.a(lib_a-puts.o)
                              obj/default/SSS_DE2_115.o (puts)
c:/altera/13.0sp1/nios2eds/bin/gnu/h-i686-mingw32/bin/../lib/gcc/nios2-elf/4.1.2/../../../../nios2-elf/lib\libc.a(lib_a-rget.o)
                              c:/altera/13.0sp1/nios2eds/bin/gnu/h-i686-mingw32/bin/../lib/gcc/nios2-elf/4.1.2/../../../../nios2-elf/lib\libc.a(lib_a-getc.o) (__srget_r)
c:/altera/13.0sp1/nios2eds/bin/gnu/h-i686-mingw32/bin/../lib/gcc/nios2-elf/4.1.2/../../../../nios2-elf/lib\libc.a(lib_a-sprintf.o)
                              obj/default/simple_socket_server.o (sprintf)
c:/altera/13.0sp1/nios2eds/bin/gnu/h-i686-mingw32/bin/../lib/gcc/nios2-elf/4.1.2/../../../../nios2-elf/lib\libc.a(lib_a-strchr.o)
                              obj/default/simple_socket_server.o (strchr)
c:/altera/13.0sp1/nios2eds/bin/gnu/h-i686-mingw32/bin/../lib/gcc/nios2-elf/4.1.2/../../../../nios2-elf/lib\libc.a(lib_a-strerror.o)
                              c:/altera/13.0sp1/nios2eds/bin/gnu/h-i686-mingw32/bin/../lib/gcc/nios2-elf/4.1.2/../../../../nios2-elf/lib\libc.a(lib_a-perror.o) (strerror)
c:/altera/13.0sp1/nios2eds/bin/gnu/h-i686-mingw32/bin/../lib/gcc/nios2-elf/4.1.2/../../../../nios2-elf/lib\libc.a(lib_a-strlen.o)
                              obj/default/LCD.o (strlen)
c:/altera/13.0sp1/nios2eds/bin/gnu/h-i686-mingw32/bin/../lib/gcc/nios2-elf/4.1.2/../../../../nios2-elf/lib\libc.a(lib_a-u_strerr.o)
                              c:/altera/13.0sp1/nios2eds/bin/gnu/h-i686-mingw32/bin/../lib/gcc/nios2-elf/4.1.2/../../../../nios2-elf/lib\libc.a(lib_a-strerror.o) (_user_strerror)
c:/altera/13.0sp1/nios2eds/bin/gnu/h-i686-mingw32/bin/../lib/gcc/nios2-elf/4.1.2/../../../../nios2-elf/lib\libc.a(lib_a-vfprintf.o)
                              c:/altera/13.0sp1/nios2eds/bin/gnu/h-i686-mingw32/bin/../lib/gcc/nios2-elf/4.1.2/../../../../nios2-elf/lib\libc.a(lib_a-printf.o) (___vfprintf_internal_r)
c:/altera/13.0sp1/nios2eds/bin/gnu/h-i686-mingw32/bin/../lib/gcc/nios2-elf/4.1.2/../../../../nios2-elf/lib\libc.a(lib_a-wbuf.o)
                              c:/altera/13.0sp1/nios2eds/bin/gnu/h-i686-mingw32/bin/../lib/gcc/nios2-elf/4.1.2/../../../../nios2-elf/lib\libc.a(lib_a-putc.o) (__swbuf_r)
c:/altera/13.0sp1/nios2eds/bin/gnu/h-i686-mingw32/bin/../lib/gcc/nios2-elf/4.1.2/../../../../nios2-elf/lib\libc.a(lib_a-wsetup.o)
                              c:/altera/13.0sp1/nios2eds/bin/gnu/h-i686-mingw32/bin/../lib/gcc/nios2-elf/4.1.2/../../../../nios2-elf/lib\libc.a(lib_a-vfprintf.o) (__swsetup_r)
c:/altera/13.0sp1/nios2eds/bin/gnu/h-i686-mingw32/bin/../lib/gcc/nios2-elf/4.1.2/../../../../nios2-elf/lib\libc.a(lib_a-__call_atexit.o)
                              c:/altera/13.0sp1/nios2eds/bin/gnu/h-i686-mingw32/bin/../lib/gcc/nios2-elf/4.1.2/../../../../nios2-elf/lib\libc.a(lib_a-exit.o) (__call_exitprocs)
c:/altera/13.0sp1/nios2eds/bin/gnu/h-i686-mingw32/bin/../lib/gcc/nios2-elf/4.1.2/../../../../nios2-elf/lib\libc.a(lib_a-dtoa.o)
                              c:/altera/13.0sp1/nios2eds/bin/gnu/h-i686-mingw32/bin/../lib/gcc/nios2-elf/4.1.2/../../../../nios2-elf/lib\libc.a(lib_a-vfprintf.o) (_dtoa_r)
c:/altera/13.0sp1/nios2eds/bin/gnu/h-i686-mingw32/bin/../lib/gcc/nios2-elf/4.1.2/../../../../nios2-elf/lib\libc.a(lib_a-fflush.o)
                              c:/altera/13.0sp1/nios2eds/bin/gnu/h-i686-mingw32/bin/../lib/gcc/nios2-elf/4.1.2/../../../../nios2-elf/lib\libc.a(lib_a-vfprintf.o) (_fflush_r)
c:/altera/13.0sp1/nios2eds/bin/gnu/h-i686-mingw32/bin/../lib/gcc/nios2-elf/4.1.2/../../../../nios2-elf/lib\libc.a(lib_a-findfp.o)
                              c:/altera/13.0sp1/nios2eds/bin/gnu/h-i686-mingw32/bin/../lib/gcc/nios2-elf/4.1.2/../../../../nios2-elf/lib\libc.a(lib_a-fwrite.o) (__sinit)
c:/altera/13.0sp1/nios2eds/bin/gnu/h-i686-mingw32/bin/../lib/gcc/nios2-elf/4.1.2/../../../../nios2-elf/lib\libc.a(lib_a-fputc.o)
                              c:/altera/13.0sp1/nios2eds/bin/gnu/h-i686-mingw32/bin/../lib/gcc/nios2-elf/4.1.2/../../../../nios2-elf/lib\libc.a(lib_a-perror.o) (fputc)
c:/altera/13.0sp1/nios2eds/bin/gnu/h-i686-mingw32/bin/../lib/gcc/nios2-elf/4.1.2/../../../../nios2-elf/lib\libc.a(lib_a-fputs.o)
                              c:/altera/13.0sp1/nios2eds/bin/gnu/h-i686-mingw32/bin/../lib/gcc/nios2-elf/4.1.2/../../../../nios2-elf/lib\libc.a(lib_a-perror.o) (fputs)
c:/altera/13.0sp1/nios2eds/bin/gnu/h-i686-mingw32/bin/../lib/gcc/nios2-elf/4.1.2/../../../../nios2-elf/lib\libc.a(lib_a-freer.o)
                              c:/altera/13.0sp1/nios2eds/bin/gnu/h-i686-mingw32/bin/../lib/gcc/nios2-elf/4.1.2/../../../../nios2-elf/lib\libc.a(lib_a-wsetup.o) (_free_r)
c:/altera/13.0sp1/nios2eds/bin/gnu/h-i686-mingw32/bin/../lib/gcc/nios2-elf/4.1.2/../../../../nios2-elf/lib\libc.a(lib_a-fvwrite.o)
                              c:/altera/13.0sp1/nios2eds/bin/gnu/h-i686-mingw32/bin/../lib/gcc/nios2-elf/4.1.2/../../../../nios2-elf/lib\libc.a(lib_a-fwrite.o) (__sfvwrite_r)
c:/altera/13.0sp1/nios2eds/bin/gnu/h-i686-mingw32/bin/../lib/gcc/nios2-elf/4.1.2/../../../../nios2-elf/lib\libc.a(lib_a-fwalk.o)
                              c:/altera/13.0sp1/nios2eds/bin/gnu/h-i686-mingw32/bin/../lib/gcc/nios2-elf/4.1.2/../../../../nios2-elf/lib\libc.a(lib_a-fflush.o) (_fwalk_reent)
c:/altera/13.0sp1/nios2eds/bin/gnu/h-i686-mingw32/bin/../lib/gcc/nios2-elf/4.1.2/../../../../nios2-elf/lib\libc.a(lib_a-locale.o)
                              c:/altera/13.0sp1/nios2eds/bin/gnu/h-i686-mingw32/bin/../lib/gcc/nios2-elf/4.1.2/../../../../nios2-elf/lib\libc.a(lib_a-vfprintf.o) (_localeconv_r)
c:/altera/13.0sp1/nios2eds/bin/gnu/h-i686-mingw32/bin/../lib/gcc/nios2-elf/4.1.2/../../../../nios2-elf/lib\libc.a(lib_a-makebuf.o)
                              c:/altera/13.0sp1/nios2eds/bin/gnu/h-i686-mingw32/bin/../lib/gcc/nios2-elf/4.1.2/../../../../nios2-elf/lib\libc.a(lib_a-wsetup.o) (__smakebuf_r)
c:/altera/13.0sp1/nios2eds/bin/gnu/h-i686-mingw32/bin/../lib/gcc/nios2-elf/4.1.2/../../../../nios2-elf/lib\libc.a(lib_a-mallocr.o)
                              c:/altera/13.0sp1/nios2eds/bin/gnu/h-i686-mingw32/bin/../lib/gcc/nios2-elf/4.1.2/../../../../nios2-elf/lib\libc.a(lib_a-findfp.o) (_malloc_r)
c:/altera/13.0sp1/nios2eds/bin/gnu/h-i686-mingw32/bin/../lib/gcc/nios2-elf/4.1.2/../../../../nios2-elf/lib\libc.a(lib_a-memchr.o)
                              c:/altera/13.0sp1/nios2eds/bin/gnu/h-i686-mingw32/bin/../lib/gcc/nios2-elf/4.1.2/../../../../nios2-elf/lib\libc.a(lib_a-vfprintf.o) (memchr)
c:/altera/13.0sp1/nios2eds/bin/gnu/h-i686-mingw32/bin/../lib/gcc/nios2-elf/4.1.2/../../../../nios2-elf/lib\libc.a(lib_a-mprec.o)
                              c:/altera/13.0sp1/nios2eds/bin/gnu/h-i686-mingw32/bin/../lib/gcc/nios2-elf/4.1.2/../../../../nios2-elf/lib\libc.a(lib_a-dtoa.o) (_Bfree)
c:/altera/13.0sp1/nios2eds/bin/gnu/h-i686-mingw32/bin/../lib/gcc/nios2-elf/4.1.2/../../../../nios2-elf/lib\libc.a(lib_a-reallocr.o)
                              c:/altera/13.0sp1/nios2eds/bin/gnu/h-i686-mingw32/bin/../lib/gcc/nios2-elf/4.1.2/../../../../nios2-elf/lib\libc.a(lib_a-fvwrite.o) (_realloc_r)
c:/altera/13.0sp1/nios2eds/bin/gnu/h-i686-mingw32/bin/../lib/gcc/nios2-elf/4.1.2/../../../../nios2-elf/lib\libc.a(lib_a-refill.o)
                              c:/altera/13.0sp1/nios2eds/bin/gnu/h-i686-mingw32/bin/../lib/gcc/nios2-elf/4.1.2/../../../../nios2-elf/lib\libc.a(lib_a-rget.o) (__srefill_r)
c:/altera/13.0sp1/nios2eds/bin/gnu/h-i686-mingw32/bin/../lib/gcc/nios2-elf/4.1.2/../../../../nios2-elf/lib\libc.a(lib_a-s_isinfd.o)
                              c:/altera/13.0sp1/nios2eds/bin/gnu/h-i686-mingw32/bin/../lib/gcc/nios2-elf/4.1.2/../../../../nios2-elf/lib\libc.a(lib_a-vfprintf.o) (__isinfd)
c:/altera/13.0sp1/nios2eds/bin/gnu/h-i686-mingw32/bin/../lib/gcc/nios2-elf/4.1.2/../../../../nios2-elf/lib\libc.a(lib_a-s_isnand.o)
                              c:/altera/13.0sp1/nios2eds/bin/gnu/h-i686-mingw32/bin/../lib/gcc/nios2-elf/4.1.2/../../../../nios2-elf/lib\libc.a(lib_a-vfprintf.o) (__isnand)
c:/altera/13.0sp1/nios2eds/bin/gnu/h-i686-mingw32/bin/../lib/gcc/nios2-elf/4.1.2/../../../../nios2-elf/lib\libc.a(lib_a-sbrkr.o)
                              c:/altera/13.0sp1/nios2eds/bin/gnu/h-i686-mingw32/bin/../lib/gcc/nios2-elf/4.1.2/../../../../nios2-elf/lib\libc.a(lib_a-freer.o) (_sbrk_r)
c:/altera/13.0sp1/nios2eds/bin/gnu/h-i686-mingw32/bin/../lib/gcc/nios2-elf/4.1.2/../../../../nios2-elf/lib\libc.a(lib_a-stdio.o)
                              c:/altera/13.0sp1/nios2eds/bin/gnu/h-i686-mingw32/bin/../lib/gcc/nios2-elf/4.1.2/../../../../nios2-elf/lib\libc.a(lib_a-findfp.o) (__sclose)
c:/altera/13.0sp1/nios2eds/bin/gnu/h-i686-mingw32/bin/../lib/gcc/nios2-elf/4.1.2/../../../../nios2-elf/lib\libc.a(lib_a-strcmp.o)
                              c:/altera/13.0sp1/nios2eds/bin/gnu/h-i686-mingw32/bin/../lib/gcc/nios2-elf/4.1.2/../../../../nios2-elf/lib\libc.a(lib_a-locale.o) (strcmp)
c:/altera/13.0sp1/nios2eds/bin/gnu/h-i686-mingw32/bin/../lib/gcc/nios2-elf/4.1.2/../../../../nios2-elf/lib\libc.a(lib_a-writer.o)
                              c:/altera/13.0sp1/nios2eds/bin/gnu/h-i686-mingw32/bin/../lib/gcc/nios2-elf/4.1.2/../../../../nios2-elf/lib\libc.a(lib_a-stdio.o) (_write_r)
c:/altera/13.0sp1/nios2eds/bin/gnu/h-i686-mingw32/bin/../lib/gcc/nios2-elf/4.1.2/../../../../nios2-elf/lib\libc.a(lib_a-callocr.o)
                              c:/altera/13.0sp1/nios2eds/bin/gnu/h-i686-mingw32/bin/../lib/gcc/nios2-elf/4.1.2/../../../../nios2-elf/lib\libc.a(lib_a-mprec.o) (_calloc_r)
c:/altera/13.0sp1/nios2eds/bin/gnu/h-i686-mingw32/bin/../lib/gcc/nios2-elf/4.1.2/../../../../nios2-elf/lib\libc.a(lib_a-closer.o)
                              c:/altera/13.0sp1/nios2eds/bin/gnu/h-i686-mingw32/bin/../lib/gcc/nios2-elf/4.1.2/../../../../nios2-elf/lib\libc.a(lib_a-stdio.o) (_close_r)
c:/altera/13.0sp1/nios2eds/bin/gnu/h-i686-mingw32/bin/../lib/gcc/nios2-elf/4.1.2/../../../../nios2-elf/lib\libc.a(lib_a-fclose.o)
                              c:/altera/13.0sp1/nios2eds/bin/gnu/h-i686-mingw32/bin/../lib/gcc/nios2-elf/4.1.2/../../../../nios2-elf/lib\libc.a(lib_a-findfp.o) (fclose)
c:/altera/13.0sp1/nios2eds/bin/gnu/h-i686-mingw32/bin/../lib/gcc/nios2-elf/4.1.2/../../../../nios2-elf/lib\libc.a(lib_a-fstatr.o)
                              c:/altera/13.0sp1/nios2eds/bin/gnu/h-i686-mingw32/bin/../lib/gcc/nios2-elf/4.1.2/../../../../nios2-elf/lib\libc.a(lib_a-makebuf.o) (_fstat_r)
c:/altera/13.0sp1/nios2eds/bin/gnu/h-i686-mingw32/bin/../lib/gcc/nios2-elf/4.1.2/../../../../nios2-elf/lib\libc.a(lib_a-int_errno.o)
                              c:/altera/13.0sp1/nios2eds/bin/gnu/h-i686-mingw32/bin/../lib/gcc/nios2-elf/4.1.2/../../../../nios2-elf/lib\libc.a(lib_a-sbrkr.o) (errno)
c:/altera/13.0sp1/nios2eds/bin/gnu/h-i686-mingw32/bin/../lib/gcc/nios2-elf/4.1.2/../../../../nios2-elf/lib\libc.a(lib_a-isattyr.o)
                              c:/altera/13.0sp1/nios2eds/bin/gnu/h-i686-mingw32/bin/../lib/gcc/nios2-elf/4.1.2/../../../../nios2-elf/lib\libc.a(lib_a-makebuf.o) (_isatty_r)
c:/altera/13.0sp1/nios2eds/bin/gnu/h-i686-mingw32/bin/../lib/gcc/nios2-elf/4.1.2/../../../../nios2-elf/lib\libc.a(lib_a-lseekr.o)
                              c:/altera/13.0sp1/nios2eds/bin/gnu/h-i686-mingw32/bin/../lib/gcc/nios2-elf/4.1.2/../../../../nios2-elf/lib\libc.a(lib_a-stdio.o) (_lseek_r)
c:/altera/13.0sp1/nios2eds/bin/gnu/h-i686-mingw32/bin/../lib/gcc/nios2-elf/4.1.2/../../../../nios2-elf/lib\libc.a(lib_a-readr.o)
                              c:/altera/13.0sp1/nios2eds/bin/gnu/h-i686-mingw32/bin/../lib/gcc/nios2-elf/4.1.2/../../../../nios2-elf/lib\libc.a(lib_a-stdio.o) (_read_r)
c:/altera/13.0sp1/nios2eds/bin/gnu/h-i686-mingw32/bin/../lib/gcc/nios2-elf/4.1.2\libgcc.a(_udivdi3.o)
                              c:/altera/13.0sp1/nios2eds/bin/gnu/h-i686-mingw32/bin/../lib/gcc/nios2-elf/4.1.2/../../../../nios2-elf/lib\libc.a(lib_a-vfprintf.o) (__udivdi3)
c:/altera/13.0sp1/nios2eds/bin/gnu/h-i686-mingw32/bin/../lib/gcc/nios2-elf/4.1.2\libgcc.a(_umoddi3.o)
                              c:/altera/13.0sp1/nios2eds/bin/gnu/h-i686-mingw32/bin/../lib/gcc/nios2-elf/4.1.2/../../../../nios2-elf/lib\libc.a(lib_a-vfprintf.o) (__umoddi3)
c:/altera/13.0sp1/nios2eds/bin/gnu/h-i686-mingw32/bin/../lib/gcc/nios2-elf/4.1.2\libgcc.a(_div_df.o)
                              c:/altera/13.0sp1/nios2eds/bin/gnu/h-i686-mingw32/bin/../lib/gcc/nios2-elf/4.1.2/../../../../nios2-elf/lib\libc.a(lib_a-dtoa.o) (__divdf3)
c:/altera/13.0sp1/nios2eds/bin/gnu/h-i686-mingw32/bin/../lib/gcc/nios2-elf/4.1.2\libgcc.a(_eq_df.o)
                              c:/altera/13.0sp1/nios2eds/bin/gnu/h-i686-mingw32/bin/../lib/gcc/nios2-elf/4.1.2/../../../../nios2-elf/lib\libc.a(lib_a-vfprintf.o) (__eqdf2)
c:/altera/13.0sp1/nios2eds/bin/gnu/h-i686-mingw32/bin/../lib/gcc/nios2-elf/4.1.2\libgcc.a(_ne_df.o)
                              c:/altera/13.0sp1/nios2eds/bin/gnu/h-i686-mingw32/bin/../lib/gcc/nios2-elf/4.1.2/../../../../nios2-elf/lib\libc.a(lib_a-vfprintf.o) (__nedf2)
c:/altera/13.0sp1/nios2eds/bin/gnu/h-i686-mingw32/bin/../lib/gcc/nios2-elf/4.1.2\libgcc.a(_gt_df.o)
                              c:/altera/13.0sp1/nios2eds/bin/gnu/h-i686-mingw32/bin/../lib/gcc/nios2-elf/4.1.2/../../../../nios2-elf/lib\libc.a(lib_a-dtoa.o) (__gtdf2)
c:/altera/13.0sp1/nios2eds/bin/gnu/h-i686-mingw32/bin/../lib/gcc/nios2-elf/4.1.2\libgcc.a(_lt_df.o)
                              c:/altera/13.0sp1/nios2eds/bin/gnu/h-i686-mingw32/bin/../lib/gcc/nios2-elf/4.1.2/../../../../nios2-elf/lib\libc.a(lib_a-vfprintf.o) (__ltdf2)
c:/altera/13.0sp1/nios2eds/bin/gnu/h-i686-mingw32/bin/../lib/gcc/nios2-elf/4.1.2\libgcc.a(_si_to_df.o)
                              c:/altera/13.0sp1/nios2eds/bin/gnu/h-i686-mingw32/bin/../lib/gcc/nios2-elf/4.1.2/../../../../nios2-elf/lib\libc.a(lib_a-dtoa.o) (__floatsidf)
c:/altera/13.0sp1/nios2eds/bin/gnu/h-i686-mingw32/bin/../lib/gcc/nios2-elf/4.1.2\libgcc.a(lib2-divmod.o)
                              c:/altera/13.0sp1/nios2eds/bin/gnu/h-i686-mingw32/bin/../lib/gcc/nios2-elf/4.1.2/../../../../nios2-elf/lib\libc.a(lib_a-vfprintf.o) (__divsi3)
../server1_bsp/\libucosii_bsp.a(alt_exit.o)
                              c:/altera/13.0sp1/nios2eds/bin/gnu/h-i686-mingw32/bin/../lib/gcc/nios2-elf/4.1.2/../../../../nios2-elf/lib\libc.a(lib_a-exit.o) (_exit)
../server1_bsp/\libucosii_bsp.a(alt_flash_dev.o)
                              obj/default/SSS_DE2_115.o (alt_flash_open_dev)
../server1_bsp/\libucosii_bsp.a(alt_fstat.o)
                              c:/altera/13.0sp1/nios2eds/bin/gnu/h-i686-mingw32/bin/../lib/gcc/nios2-elf/4.1.2/../../../../nios2-elf/lib\libc.a(lib_a-fstatr.o) (fstat)
../server1_bsp/\libucosii_bsp.a(alt_irq_register.o)
                              obj/default/dm9000a.o (alt_irq_register)
../server1_bsp/\libucosii_bsp.a(alt_irq_vars.o)
                              ../server1_bsp/\libucosii_bsp.a(alt_irq_register.o) (alt_irq_active)
../server1_bsp/\libucosii_bsp.a(alt_isatty.o)
                              c:/altera/13.0sp1/nios2eds/bin/gnu/h-i686-mingw32/bin/../lib/gcc/nios2-elf/4.1.2/../../../../nios2-elf/lib\libc.a(lib_a-isattyr.o) (isatty)
../server1_bsp/\libucosii_bsp.a(alt_lseek.o)
                              c:/altera/13.0sp1/nios2eds/bin/gnu/h-i686-mingw32/bin/../lib/gcc/nios2-elf/4.1.2/../../../../nios2-elf/lib\libc.a(lib_a-lseekr.o) (lseek)
../server1_bsp/\libucosii_bsp.a(alt_main.o)
                              ../server1_bsp//obj/HAL/src/crt0.o (alt_main)
../server1_bsp/\libucosii_bsp.a(alt_sbrk.o)
                              c:/altera/13.0sp1/nios2eds/bin/gnu/h-i686-mingw32/bin/../lib/gcc/nios2-elf/4.1.2/../../../../nios2-elf/lib\libc.a(lib_a-sbrkr.o) (sbrk)
../server1_bsp/\libucosii_bsp.a(alt_usleep.o)
                              obj/default/LCD.o (usleep)
../server1_bsp/\libucosii_bsp.a(alt_env_lock.o)
                              ../server1_bsp/\libucosii_bsp.a(alt_main.o) (alt_envsem)
../server1_bsp/\libucosii_bsp.a(alt_malloc_lock.o)
                              c:/altera/13.0sp1/nios2eds/bin/gnu/h-i686-mingw32/bin/../lib/gcc/nios2-elf/4.1.2/../../../../nios2-elf/lib\libc.a(lib_a-freer.o) (__malloc_lock)
../server1_bsp/\libucosii_bsp.a(os_core.o)
                              ../server1_bsp/\libucosii_bsp.a(alt_main.o) (OSInit)
../server1_bsp/\libucosii_bsp.a(os_dbg.o)
                              ../server1_bsp/\libucosii_bsp.a(os_core.o) (OSDebugInit)
../server1_bsp/\libucosii_bsp.a(os_flag.o)
                              obj/default/simple_socket_server.o (OSFlagCreate)
../server1_bsp/\libucosii_bsp.a(os_mem.o)
                              ../server1_bsp/\libucosii_bsp.a(os_core.o) (OS_MemInit)
../server1_bsp/\libucosii_bsp.a(os_q.o)
                              obj/default/simple_socket_server.o (OSQCreate)
../server1_bsp/\libucosii_bsp.a(os_sem.o)
                              obj/default/simple_socket_server.o (OSSemCreate)
../server1_bsp/\libucosii_bsp.a(os_task.o)
                              obj/default/iniche_init.o (OSTaskCreateExt)
../server1_bsp/\libucosii_bsp.a(os_time.o)
                              obj/default/iniche_init.o (OSTimeDly)
../server1_bsp/\libucosii_bsp.a(alt_sys_init.o)
                              ../server1_bsp/\libucosii_bsp.a(alt_main.o) (alt_irq_init)
../server1_bsp/\libucosii_bsp.a(altera_avalon_cfi_flash.o)
                              ../server1_bsp/\libucosii_bsp.a(alt_sys_init.o) (alt_flash_cfi_init)
../server1_bsp/\libucosii_bsp.a(altera_avalon_cfi_flash_table.o)
                              ../server1_bsp/\libucosii_bsp.a(altera_avalon_cfi_flash.o) (alt_set_flash_width_func)
../server1_bsp/\libucosii_bsp.a(altera_avalon_epcs_flash_controller.o)
                              ../server1_bsp/\libucosii_bsp.a(alt_sys_init.o) (alt_epcs_flash_init)
../server1_bsp/\libucosii_bsp.a(altera_avalon_jtag_uart_fd.o)
                              ../server1_bsp/\libucosii_bsp.a(alt_sys_init.o) (altera_avalon_jtag_uart_read_fd)
../server1_bsp/\libucosii_bsp.a(altera_avalon_jtag_uart_init.o)
                              ../server1_bsp/\libucosii_bsp.a(alt_sys_init.o) (altera_avalon_jtag_uart_init)
../server1_bsp/\libucosii_bsp.a(altera_avalon_jtag_uart_ioctl.o)
                              ../server1_bsp/\libucosii_bsp.a(altera_avalon_jtag_uart_fd.o) (altera_avalon_jtag_uart_ioctl)
../server1_bsp/\libucosii_bsp.a(altera_avalon_jtag_uart_read.o)
                              ../server1_bsp/\libucosii_bsp.a(altera_avalon_jtag_uart_fd.o) (altera_avalon_jtag_uart_read)
../server1_bsp/\libucosii_bsp.a(altera_avalon_jtag_uart_write.o)
                              ../server1_bsp/\libucosii_bsp.a(altera_avalon_jtag_uart_fd.o) (altera_avalon_jtag_uart_write)
../server1_bsp/\libucosii_bsp.a(altera_avalon_lcd_16207.o)
                              ../server1_bsp/\libucosii_bsp.a(alt_sys_init.o) (altera_avalon_lcd_16207_init)
../server1_bsp/\libucosii_bsp.a(altera_avalon_lcd_16207_fd.o)
                              ../server1_bsp/\libucosii_bsp.a(alt_sys_init.o) (altera_avalon_lcd_16207_write_fd)
../server1_bsp/\libucosii_bsp.a(altera_avalon_timer_sc.o)
                              ../server1_bsp/\libucosii_bsp.a(alt_sys_init.o) (alt_avalon_timer_sc_init)
../server1_bsp/\libucosii_bsp.a(altera_avalon_uart_fd.o)
                              ../server1_bsp/\libucosii_bsp.a(alt_sys_init.o) (altera_avalon_uart_read_fd)
../server1_bsp/\libucosii_bsp.a(altera_avalon_uart_init.o)
                              ../server1_bsp/\libucosii_bsp.a(alt_sys_init.o) (altera_avalon_uart_init)
../server1_bsp/\libucosii_bsp.a(altera_avalon_uart_read.o)
                              ../server1_bsp/\libucosii_bsp.a(altera_avalon_uart_fd.o) (altera_avalon_uart_read)
../server1_bsp/\libucosii_bsp.a(altera_avalon_uart_write.o)
                              ../server1_bsp/\libucosii_bsp.a(altera_avalon_uart_fd.o) (altera_avalon_uart_write)
../server1_bsp/\libucosii_bsp.a(epcs_commands.o)
                              ../server1_bsp/\libucosii_bsp.a(altera_avalon_epcs_flash_controller.o) (epcs_sector_erase)
../server1_bsp/\libucosii_bsp.a(alt_iniche_close.o)
                              obj/default/iniche_init.o (close)
../server1_bsp/\libucosii_bsp.a(alt_iniche_dev.o)
                              obj/default/iniche_init.o (alt_iniche_dev_list)
../server1_bsp/\libucosii_bsp.a(alt_iniche_read.o)
                              c:/altera/13.0sp1/nios2eds/bin/gnu/h-i686-mingw32/bin/../lib/gcc/nios2-elf/4.1.2/../../../../nios2-elf/lib\libc.a(lib_a-readr.o) (read)
../server1_bsp/\libucosii_bsp.a(alt_iniche_write.o)
                              c:/altera/13.0sp1/nios2eds/bin/gnu/h-i686-mingw32/bin/../lib/gcc/nios2-elf/4.1.2/../../../../nios2-elf/lib\libc.a(lib_a-writer.o) (write)
../server1_bsp/\libucosii_bsp.a(ipnet.o)
                              obj/default/dm9000a.o (rcvdq)
../server1_bsp/\libucosii_bsp.a(ipstart.o)
                              ../server1_bsp/\libucosii_bsp.a(ipnet.o) (ifNumber)
../server1_bsp/\libucosii_bsp.a(igmp_cmn.o)
                              ../server1_bsp/\libucosii_bsp.a(ipstart.o) (igmp_init)
../server1_bsp/\libucosii_bsp.a(bsdsock.o)
                              obj/default/simple_socket_server.o (bsd_accept)
../server1_bsp/\libucosii_bsp.a(cksum.o)
                              ../server1_bsp/\libucosii_bsp.a(igmp_cmn.o) (cksum)
../server1_bsp/\libucosii_bsp.a(in_utils.o)
                              ../server1_bsp/\libucosii_bsp.a(igmp_cmn.o) (ns_printf)
../server1_bsp/\libucosii_bsp.a(netmain.o)
                              obj/default/iniche_init.o (iniche_net_ready)
../server1_bsp/\libucosii_bsp.a(parseip.o)
                              obj/default/iniche_init.o (inet_pton)
../server1_bsp/\libucosii_bsp.a(tk_crnos.o)
                              ../server1_bsp/\libucosii_bsp.a(ipnet.o) (tk_yield)
../server1_bsp/\libucosii_bsp.a(dhcpclnt.o)
                              ../server1_bsp/\libucosii_bsp.a(netmain.o) (dhc_second)
../server1_bsp/\libucosii_bsp.a(dhcputil.o)
                              ../server1_bsp/\libucosii_bsp.a(dhcpclnt.o) (find_opt)
../server1_bsp/\libucosii_bsp.a(pktalloc.o)
                              ../server1_bsp/\libucosii_bsp.a(ipnet.o) (pk_init)
../server1_bsp/\libucosii_bsp.a(q.o)
                              ../server1_bsp/\libucosii_bsp.a(ipnet.o) (getq)
../server1_bsp/\libucosii_bsp.a(udp_open.o)
                              ../server1_bsp/\libucosii_bsp.a(dhcpclnt.o) (udp_open)
../server1_bsp/\libucosii_bsp.a(asm_cksum.o)
                              ../server1_bsp/\libucosii_bsp.a(cksum.o) (asm_cksum)
../server1_bsp/\libucosii_bsp.a(brdutils.o)
                              ../server1_bsp/\libucosii_bsp.a(ipnet.o) (dtrap)
../server1_bsp/\libucosii_bsp.a(osportco.o)
                              ../server1_bsp/\libucosii_bsp.a(tk_crnos.o) (tcp_sleep_count)
../server1_bsp/\libucosii_bsp.a(targnios.o)
                              obj/default/iniche_init.o (alt_iniche_init)
../server1_bsp/\libucosii_bsp.a(nptcp.o)
                              ../server1_bsp/\libucosii_bsp.a(bsdsock.o) (soq)
../server1_bsp/\libucosii_bsp.a(rawsock.o)
                              ../server1_bsp/\libucosii_bsp.a(nptcp.o) (rawip_usrreq)
../server1_bsp/\libucosii_bsp.a(sockcall.o)
                              obj/default/iniche_init.o (t_socket)
../server1_bsp/\libucosii_bsp.a(socket.o)
                              ../server1_bsp/\libucosii_bsp.a(sockcall.o) (socreate)
../server1_bsp/\libucosii_bsp.a(socket2.o)
                              ../server1_bsp/\libucosii_bsp.a(sockcall.o) (soqremque)
../server1_bsp/\libucosii_bsp.a(soselect.o)
                              ../server1_bsp/\libucosii_bsp.a(bsdsock.o) (t_select)
../server1_bsp/\libucosii_bsp.a(tcp_in.o)
                              ../server1_bsp/\libucosii_bsp.a(nptcp.o) (tcp_input)
../server1_bsp/\libucosii_bsp.a(tcp_out.o)
                              ../server1_bsp/\libucosii_bsp.a(tcp_in.o) (tcp_output)
../server1_bsp/\libucosii_bsp.a(tcp_subr.o)
                              ../server1_bsp/\libucosii_bsp.a(nptcp.o) (tcp_init)
../server1_bsp/\libucosii_bsp.a(tcp_timr.o)
                              ../server1_bsp/\libucosii_bsp.a(tcp_in.o) (tcp_keepidle)
../server1_bsp/\libucosii_bsp.a(tcp_usr.o)
                              ../server1_bsp/\libucosii_bsp.a(nptcp.o) (tcp_usrreq)
../server1_bsp/\libucosii_bsp.a(tcpport.o)
                              ../server1_bsp/\libucosii_bsp.a(ipstart.o) (tcpinit)
../server1_bsp/\libucosii_bsp.a(udpsock.o)
                              ../server1_bsp/\libucosii_bsp.a(nptcp.o) (udp_usrreq)
../server1_bsp/\libucosii_bsp.a(alt_alarm_start.o)
                              ../server1_bsp/\libucosii_bsp.a(altera_avalon_jtag_uart_init.o) (alt_alarm_start)
../server1_bsp/\libucosii_bsp.a(alt_busy_sleep.o)
                              ../server1_bsp/\libucosii_bsp.a(alt_usleep.o) (alt_busy_sleep)
../server1_bsp/\libucosii_bsp.a(alt_close.o)
                              ../server1_bsp/\libucosii_bsp.a(alt_iniche_close.o) (alt_close)
../server1_bsp/\libucosii_bsp.a(alt_dcache_flush.o)
                              ../server1_bsp/\libucosii_bsp.a(altera_avalon_cfi_flash.o) (alt_dcache_flush)
../server1_bsp/\libucosii_bsp.a(alt_dev.o)
                              ../server1_bsp/\libucosii_bsp.a(alt_sys_init.o) (alt_dev_list)
../server1_bsp/\libucosii_bsp.a(alt_dev_llist_insert.o)
                              ../server1_bsp/\libucosii_bsp.a(alt_sys_init.o) (alt_dev_llist_insert)
../server1_bsp/\libucosii_bsp.a(alt_do_ctors.o)
                              ../server1_bsp/\libucosii_bsp.a(alt_main.o) (_do_ctors)
../server1_bsp/\libucosii_bsp.a(alt_do_dtors.o)
                              ../server1_bsp/\libucosii_bsp.a(alt_main.o) (_do_dtors)
../server1_bsp/\libucosii_bsp.a(alt_errno.o)
                              ../server1_bsp/\libucosii_bsp.a(alt_fstat.o) (alt_errno)
../server1_bsp/\libucosii_bsp.a(alt_find_dev.o)
                              ../server1_bsp/\libucosii_bsp.a(alt_flash_dev.o) (alt_find_dev)
../server1_bsp/\libucosii_bsp.a(alt_iic.o)
                              ../server1_bsp/\libucosii_bsp.a(altera_avalon_jtag_uart_init.o) (alt_ic_isr_register)
../server1_bsp/\libucosii_bsp.a(alt_iic_isr_register.o)
                              ../server1_bsp/\libucosii_bsp.a(alt_iic.o) (alt_iic_isr_register)
../server1_bsp/\libucosii_bsp.a(alt_io_redirect.o)
                              ../server1_bsp/\libucosii_bsp.a(alt_main.o) (alt_io_redirect)
../server1_bsp/\libucosii_bsp.a(alt_irq_entry.o)
                              ../server1_bsp/\libucosii_bsp.a(alt_irq_register.o) (alt_irq_entry)
../server1_bsp/\libucosii_bsp.a(alt_irq_handler.o)
                              ../server1_bsp/\libucosii_bsp.a(alt_irq_register.o) (alt_irq_handler)
../server1_bsp/\libucosii_bsp.a(alt_open.o)
                              ../server1_bsp/\libucosii_bsp.a(alt_io_redirect.o) (open)
../server1_bsp/\libucosii_bsp.a(alt_read.o)
                              ../server1_bsp/\libucosii_bsp.a(alt_iniche_read.o) (alt_read)
../server1_bsp/\libucosii_bsp.a(alt_release_fd.o)
                              ../server1_bsp/\libucosii_bsp.a(alt_close.o) (alt_release_fd)
../server1_bsp/\libucosii_bsp.a(alt_remap_cached.o)
                              ../server1_bsp/\libucosii_bsp.a(targnios.o) (alt_remap_cached)
../server1_bsp/\libucosii_bsp.a(alt_remap_uncached.o)
                              ../server1_bsp/\libucosii_bsp.a(targnios.o) (alt_remap_uncached)
../server1_bsp/\libucosii_bsp.a(alt_tick.o)
                              ../server1_bsp/\libucosii_bsp.a(alt_usleep.o) (_alt_tick_rate)
../server1_bsp/\libucosii_bsp.a(alt_write.o)
                              ../server1_bsp/\libucosii_bsp.a(alt_iniche_write.o) (alt_write)
../server1_bsp/\libucosii_bsp.a(altera_nios2_qsys_irq.o)
                              ../server1_bsp/\libucosii_bsp.a(alt_sys_init.o) (altera_nios2_qsys_irq_init)
../server1_bsp/\libucosii_bsp.a(os_cpu_a.o)
                              ../server1_bsp/\libucosii_bsp.a(os_core.o) (OSIntCtxSw)
../server1_bsp/\libucosii_bsp.a(os_cpu_c.o)
                              ../server1_bsp/\libucosii_bsp.a(os_task.o) (OSTaskStkInit)
../server1_bsp/\libucosii_bsp.a(altera_avalon_cfi_flash_amd.o)
                              ../server1_bsp/\libucosii_bsp.a(altera_avalon_cfi_flash_table.o) (alt_program_amd)
../server1_bsp/\libucosii_bsp.a(altera_avalon_cfi_flash_intel.o)
                              ../server1_bsp/\libucosii_bsp.a(altera_avalon_cfi_flash_table.o) (alt_program_intel)
../server1_bsp/\libucosii_bsp.a(altera_avalon_spi.o)
                              ../server1_bsp/\libucosii_bsp.a(epcs_commands.o) (alt_avalon_spi_command)
../server1_bsp/\libucosii_bsp.a(allports.o)
                              ../server1_bsp/\libucosii_bsp.a(dhcpclnt.o) (name)
../server1_bsp/\libucosii_bsp.a(timeouts.o)
                              ../server1_bsp/\libucosii_bsp.a(netmain.o) (inet_timer)
../server1_bsp/\libucosii_bsp.a(tk_misc.o)
                              ../server1_bsp/\libucosii_bsp.a(netmain.o) (create_apptasks)
../server1_bsp/\libucosii_bsp.a(alt_iniche_fcntl.o)
                              ../server1_bsp/\libucosii_bsp.a(brdutils.o) (fcntl)
../server1_bsp/\libucosii_bsp.a(et_arp.o)
                              ../server1_bsp/\libucosii_bsp.a(ipstart.o) (etainit)
../server1_bsp/\libucosii_bsp.a(iface.o)
                              ../server1_bsp/\libucosii_bsp.a(ipnet.o) (netlist)
../server1_bsp/\libucosii_bsp.a(ip.o)
                              ../server1_bsp/\libucosii_bsp.a(ipstart.o) (ip_init)
../server1_bsp/\libucosii_bsp.a(ip_reasm.o)
                              ../server1_bsp/\libucosii_bsp.a(timeouts.o) (ire_cticks)
../server1_bsp/\libucosii_bsp.a(ipdemux.o)
                              ../server1_bsp/\libucosii_bsp.a(ipnet.o) (ip_rcv)
../server1_bsp/\libucosii_bsp.a(ipmc.o)
                              ../server1_bsp/\libucosii_bsp.a(ipstart.o) (in_addmulti)
../server1_bsp/\libucosii_bsp.a(ipport.o)
                              ../server1_bsp/\libucosii_bsp.a(targnios.o) (port_prep)
../server1_bsp/\libucosii_bsp.a(ipraw.o)
                              ../server1_bsp/\libucosii_bsp.a(rawsock.o) (ipraw_eps)
../server1_bsp/\libucosii_bsp.a(iproute.o)
                              ../server1_bsp/\libucosii_bsp.a(ip.o) (cachedRoute)
../server1_bsp/\libucosii_bsp.a(udp.o)
                              ../server1_bsp/\libucosii_bsp.a(ipdemux.o) (udpdemux)
../server1_bsp/\libucosii_bsp.a(igmp.o)
                              ../server1_bsp/\libucosii_bsp.a(igmp_cmn.o) (igmpv1_input)
../server1_bsp/\libucosii_bsp.a(igmp2.o)
                              ../server1_bsp/\libucosii_bsp.a(igmp_cmn.o) (igmpv2_input)
../server1_bsp/\libucosii_bsp.a(ipopt.o)
                              ../server1_bsp/\libucosii_bsp.a(socket.o) (ip_setmoptions)
../server1_bsp/\libucosii_bsp.a(u_mctest.o)
                              ../server1_bsp/\libucosii_bsp.a(allports.o) (u_mctest_init)
../server1_bsp/\libucosii_bsp.a(dhcsetup.o)
                              ../server1_bsp/\libucosii_bsp.a(allports.o) (dhc_setup)
../server1_bsp/\libucosii_bsp.a(memdev.o)
                              ../server1_bsp/\libucosii_bsp.a(allports.o) (init_memdev)
../server1_bsp/\libucosii_bsp.a(tcpcksum.o)
                              ../server1_bsp/\libucosii_bsp.a(nptcp.o) (tcp_cksum)
../server1_bsp/\libucosii_bsp.a(in_pcb.o)
                              ../server1_bsp/\libucosii_bsp.a(tcp_usr.o) (in_pcballoc)
../server1_bsp/\libucosii_bsp.a(vfsfiles.o)
                              ../server1_bsp/\libucosii_bsp.a(memdev.o) (vfsystems)
../server1_bsp/\libucosii_bsp.a(vfsport.o)
                              ../server1_bsp/\libucosii_bsp.a(allports.o) (prep_vfs)
../server1_bsp/\libucosii_bsp.a(alt_exception_entry.o)
                              ../server1_bsp/\libucosii_bsp.a(alt_irq_entry.o) (alt_exception)
../server1_bsp/\libucosii_bsp.a(alt_fcntl.o)
                              ../server1_bsp/\libucosii_bsp.a(alt_iniche_fcntl.o) (alt_fcntl)
../server1_bsp/\libucosii_bsp.a(alt_find_file.o)
                              ../server1_bsp/\libucosii_bsp.a(alt_open.o) (alt_find_file)
../server1_bsp/\libucosii_bsp.a(alt_get_fd.o)
                              ../server1_bsp/\libucosii_bsp.a(alt_open.o) (alt_get_fd)
../server1_bsp/\libucosii_bsp.a(icmp.o)
                              ../server1_bsp/\libucosii_bsp.a(ipdemux.o) (icmprcv)
c:/altera/13.0sp1/nios2eds/bin/gnu/h-i686-mingw32/bin/../lib/gcc/nios2-elf/4.1.2/../../../../nios2-elf/lib\libc.a(lib_a-atexit.o)
                              ../server1_bsp/\libucosii_bsp.a(alt_main.o) (atexit)
c:/altera/13.0sp1/nios2eds/bin/gnu/h-i686-mingw32/bin/../lib/gcc/nios2-elf/4.1.2/../../../../nios2-elf/lib\libc.a(lib_a-atoi.o)
                              ../server1_bsp/\libucosii_bsp.a(parseip.o) (atoi)
c:/altera/13.0sp1/nios2eds/bin/gnu/h-i686-mingw32/bin/../lib/gcc/nios2-elf/4.1.2/../../../../nios2-elf/lib\libc.a(lib_a-calloc.o)
                              ../server1_bsp/\libucosii_bsp.a(targnios.o) (calloc)
c:/altera/13.0sp1/nios2eds/bin/gnu/h-i686-mingw32/bin/../lib/gcc/nios2-elf/4.1.2/../../../../nios2-elf/lib\libc.a(lib_a-malloc.o)
                              ../server1_bsp/\libucosii_bsp.a(targnios.o) (free)
c:/altera/13.0sp1/nios2eds/bin/gnu/h-i686-mingw32/bin/../lib/gcc/nios2-elf/4.1.2/../../../../nios2-elf/lib\libc.a(lib_a-memcmp.o)
                              ../server1_bsp/\libucosii_bsp.a(altera_avalon_cfi_flash.o) (memcmp)
c:/altera/13.0sp1/nios2eds/bin/gnu/h-i686-mingw32/bin/../lib/gcc/nios2-elf/4.1.2/../../../../nios2-elf/lib\libc.a(lib_a-strcpy.o)
                              ../server1_bsp/\libucosii_bsp.a(parseip.o) (strcpy)
c:/altera/13.0sp1/nios2eds/bin/gnu/h-i686-mingw32/bin/../lib/gcc/nios2-elf/4.1.2/../../../../nios2-elf/lib\libc.a(lib_a-strncmp.o)
                              ../server1_bsp/\libucosii_bsp.a(vfsfiles.o) (strncmp)
c:/altera/13.0sp1/nios2eds/bin/gnu/h-i686-mingw32/bin/../lib/gcc/nios2-elf/4.1.2/../../../../nios2-elf/lib\libc.a(lib_a-strncpy.o)
                              ../server1_bsp/\libucosii_bsp.a(dhcpclnt.o) (strncpy)
c:/altera/13.0sp1/nios2eds/bin/gnu/h-i686-mingw32/bin/../lib/gcc/nios2-elf/4.1.2/../../../../nios2-elf/lib\libc.a(lib_a-strtol.o)
                              c:/altera/13.0sp1/nios2eds/bin/gnu/h-i686-mingw32/bin/../lib/gcc/nios2-elf/4.1.2/../../../../nios2-elf/lib\libc.a(lib_a-atoi.o) (_strtol_r)
c:/altera/13.0sp1/nios2eds/bin/gnu/h-i686-mingw32/bin/../lib/gcc/nios2-elf/4.1.2/../../../../nios2-elf/lib\libc.a(lib_a-vprintf.o)
                              ../server1_bsp/\libucosii_bsp.a(in_utils.o) (vprintf)
c:/altera/13.0sp1/nios2eds/bin/gnu/h-i686-mingw32/bin/../lib/gcc/nios2-elf/4.1.2/../../../../nios2-elf/lib\libc.a(lib_a-vsprintf.o)
                              ../server1_bsp/\libucosii_bsp.a(in_utils.o) (vsprintf)
c:/altera/13.0sp1/nios2eds/bin/gnu/h-i686-mingw32/bin/../lib/gcc/nios2-elf/4.1.2/../../../../nios2-elf/lib\libc.a(lib_a-__atexit.o)
                              c:/altera/13.0sp1/nios2eds/bin/gnu/h-i686-mingw32/bin/../lib/gcc/nios2-elf/4.1.2/../../../../nios2-elf/lib\libc.a(lib_a-atexit.o) (__register_exitproc)

Allocating common symbols
Common symbol       size              file

soq                 0x14              ../server1_bsp/\libucosii_bsp.a(nptcp.o)
alt_irq             0x100             ../server1_bsp/\libucosii_bsp.a(alt_irq_handler.o)
tcp_optionbuf       0x4               ../server1_bsp/\libucosii_bsp.a(tcp_out.o)
last_flash_sector_offset
                    0x4               obj/default/SSS_DE2_115.o
rt_mib              0x4               ../server1_bsp/\libucosii_bsp.a(ip.o)
so_evtmap_create    0x4               ../server1_bsp/\libucosii_bsp.a(ipport.o)
SSSLEDCommandQ      0x4               obj/default/simple_socket_server.o
OSLockNesting       0x1               ../server1_bsp/\libucosii_bsp.a(os_core.o)
tcb                 0x2c              ../server1_bsp/\libucosii_bsp.a(tcp_subr.o)
OSRunning           0x1               ../server1_bsp/\libucosii_bsp.a(os_core.o)
dhc_states          0xf0              ../server1_bsp/\libucosii_bsp.a(dhcpclnt.o)
tcpstat             0xe0              ../server1_bsp/\libucosii_bsp.a(tcp_subr.o)
OSIdleCtr           0x4               ../server1_bsp/\libucosii_bsp.a(os_core.o)
SSSLEDLightshowSem  0x4               obj/default/simple_socket_server.o
udp_mib             0x10              ../server1_bsp/\libucosii_bsp.a(udp.o)
to_netmain          0x1               ../server1_bsp/\libucosii_bsp.a(netmain.o)
OSPrioHighRdy       0x1               ../server1_bsp/\libucosii_bsp.a(os_core.o)
errno               0x4               c:/altera/13.0sp1/nios2eds/bin/gnu/h-i686-mingw32/bin/../lib/gcc/nios2-elf/4.1.2/../../../../nios2-elf/lib\libc.a(lib_a-int_errno.o)
lilfreeq            0x14              ../server1_bsp/\libucosii_bsp.a(pktalloc.o)
icmp_mib            0x68              ../server1_bsp/\libucosii_bsp.a(icmp.o)
resid_semaphore     0x40              ../server1_bsp/\libucosii_bsp.a(targnios.o)
alt_heapsem         0x4               ../server1_bsp/\libucosii_bsp.a(alt_malloc_lock.o)
OSFlagTbl           0x370             ../server1_bsp/\libucosii_bsp.a(os_core.o)
mbstat              0x8               ../server1_bsp/\libucosii_bsp.a(nptcp.o)
netq_intmask        0x4               ../server1_bsp/\libucosii_bsp.a(osportco.o)
select_wait         0x2               ../server1_bsp/\libucosii_bsp.a(nptcp.o)
tcpmib              0x3c              ../server1_bsp/\libucosii_bsp.a(nptcp.o)
OSPrioCur           0x1               ../server1_bsp/\libucosii_bsp.a(os_core.o)
mheap_sem_ptr       0x4               ../server1_bsp/\libucosii_bsp.a(targnios.o)
netlist             0x14              ../server1_bsp/\libucosii_bsp.a(iface.o)
mbufq               0x14              ../server1_bsp/\libucosii_bsp.a(nptcp.o)
OSTCBList           0x4               ../server1_bsp/\libucosii_bsp.a(os_core.o)
alt_fd_list_lock    0x4               ../server1_bsp/\libucosii_bsp.a(alt_dev.o)
OSMemTbl            0xc30             ../server1_bsp/\libucosii_bsp.a(os_core.o)
OSTickStepState     0x1               ../server1_bsp/\libucosii_bsp.a(os_core.o)
OSTaskStatStk       0x800             ../server1_bsp/\libucosii_bsp.a(os_core.o)
OSCtxSwCtr          0x4               ../server1_bsp/\libucosii_bsp.a(os_core.o)
igmpstats           0x64              ../server1_bsp/\libucosii_bsp.a(igmp_cmn.o)
ire_stats           0x18              ../server1_bsp/\libucosii_bsp.a(ip_reasm.o)
old_mode            0x4               ../server1_bsp/\libucosii_bsp.a(osportco.o)
vfs_dir_stale       0x4               ../server1_bsp/\libucosii_bsp.a(vfsfiles.o)
cticks_factor       0x4               ../server1_bsp/\libucosii_bsp.a(brdutils.o)
g_dm9ka             0x44              obj/default/dm9000a.o
OSIdleCtrMax        0x4               ../server1_bsp/\libucosii_bsp.a(os_core.o)
memestats           0x10              ../server1_bsp/\libucosii_bsp.a(pktalloc.o)
intimers            0x64              ../server1_bsp/\libucosii_bsp.a(timeouts.o)
OSTCBFreeList       0x4               ../server1_bsp/\libucosii_bsp.a(os_core.o)
global_TCPwakeup_setIndx
                    0x4               ../server1_bsp/\libucosii_bsp.a(osportco.o)
SSSInitialTaskStk   0x2000            obj/default/iniche_init.o
rcvdq               0x14              ../server1_bsp/\libucosii_bsp.a(ipnet.o)
global_tcb_ext      0xfc              ../server1_bsp/\libucosii_bsp.a(osportco.o)
netstatic           0x300             ../server1_bsp/\libucosii_bsp.a(ipstart.o)
tcp_maxidle         0x4               ../server1_bsp/\libucosii_bsp.a(tcp_timr.o)
LED7SegLightshowTaskStk
                    0x2000            obj/default/simple_socket_server.o
OSCPUUsage          0x1               ../server1_bsp/\libucosii_bsp.a(os_core.o)
nets                0x10              ../server1_bsp/\libucosii_bsp.a(ipstart.o)
pktlog              0xf0              ../server1_bsp/\libucosii_bsp.a(pktalloc.o)
OSTaskCtr           0x1               ../server1_bsp/\libucosii_bsp.a(os_core.o)
SSSLEDEventFlag     0x4               obj/default/simple_socket_server.o
OSMemFreeList       0x4               ../server1_bsp/\libucosii_bsp.a(os_core.o)
vfs_open_files      0x4               ../server1_bsp/\libucosii_bsp.a(vfsfiles.o)
cticks              0x4               ../server1_bsp/\libucosii_bsp.a(osportco.o)
to_nettick          0x1               ../server1_bsp/\libucosii_bsp.a(netmain.o)
last_flash_sector   0x4               obj/default/SSS_DE2_115.o
OSQTbl              0x1e0             ../server1_bsp/\libucosii_bsp.a(os_core.o)
OSTCBHighRdy        0x4               ../server1_bsp/\libucosii_bsp.a(os_core.o)
OSQFreeList         0x4               ../server1_bsp/\libucosii_bsp.a(os_core.o)
OSRdyGrp            0x1               ../server1_bsp/\libucosii_bsp.a(os_core.o)
ip_mib              0x50              ../server1_bsp/\libucosii_bsp.a(ip.o)
SSSLEDCommandQTbl   0x78              obj/default/simple_socket_server.o
OS_TPS              0x4               ../server1_bsp/\libucosii_bsp.a(brdutils.o)
_atexit0            0x190             c:/altera/13.0sp1/nios2eds/bin/gnu/h-i686-mingw32/bin/../lib/gcc/nios2-elf/4.1.2/../../../../nios2-elf/lib\libc.a(lib_a-atexit.o)
OSRdyTbl            0x3               ../server1_bsp/\libucosii_bsp.a(os_core.o)
igmp_all_hosts_group
                    0x4               ../server1_bsp/\libucosii_bsp.a(igmp_cmn.o)
eth_prt_buf         0x12              ../server1_bsp/\libucosii_bsp.a(in_utils.o)
app_semaphore       0x18              ../server1_bsp/\libucosii_bsp.a(targnios.o)
LEDManagementTaskStk
                    0x2000            obj/default/simple_socket_server.o
rcvdq_sem_ptr       0x4               ../server1_bsp/\libucosii_bsp.a(targnios.o)
OSEventFreeList     0x4               ../server1_bsp/\libucosii_bsp.a(os_core.o)
mfreeq              0x14              ../server1_bsp/\libucosii_bsp.a(nptcp.o)
to_ssstask          0x1               obj/default/iniche_init.o
global_TCPwakeup_set
                    0xf0              ../server1_bsp/\libucosii_bsp.a(osportco.o)
bigfreeq            0x14              ../server1_bsp/\libucosii_bsp.a(pktalloc.o)
so_evtmap_delete    0x4               ../server1_bsp/\libucosii_bsp.a(ipport.o)
tcp_saveti          0x28              ../server1_bsp/\libucosii_bsp.a(tcp_in.o)
OSIntNesting        0x1               ../server1_bsp/\libucosii_bsp.a(os_core.o)
so_evtmap           0x1               ../server1_bsp/\libucosii_bsp.a(ipport.o)
OSTCBCur            0x4               ../server1_bsp/\libucosii_bsp.a(os_core.o)
arp_table           0x100             ../server1_bsp/\libucosii_bsp.a(et_arp.o)
tcp_iss             0x4               ../server1_bsp/\libucosii_bsp.a(tcp_timr.o)
vfs_total_rw_space  0x4               ../server1_bsp/\libucosii_bsp.a(vfsfiles.o)
OSTime              0x4               ../server1_bsp/\libucosii_bsp.a(os_core.o)
OSTaskIdleStk       0x800             ../server1_bsp/\libucosii_bsp.a(os_core.o)
OSEventTbl          0xb40             ../server1_bsp/\libucosii_bsp.a(os_core.o)
vfs_total_dyna_files
                    0x4               ../server1_bsp/\libucosii_bsp.a(vfsfiles.o)
OSTCBTbl            0x510             ../server1_bsp/\libucosii_bsp.a(os_core.o)
ipreturn            0x12              ../server1_bsp/\libucosii_bsp.a(in_utils.o)
OSFlagFreeList      0x4               ../server1_bsp/\libucosii_bsp.a(os_core.o)
dropline            0x4               ../server1_bsp/\libucosii_bsp.a(tcp_in.o)
OSStatRdy           0x1               ../server1_bsp/\libucosii_bsp.a(os_core.o)
OSTCBPrioTbl        0x54              ../server1_bsp/\libucosii_bsp.a(os_core.o)
igmp_all_rtrs_group
                    0x4               ../server1_bsp/\libucosii_bsp.a(igmp_cmn.o)
alt_envsem          0x4               ../server1_bsp/\libucosii_bsp.a(alt_env_lock.o)
OSIdleCtrRun        0x4               ../server1_bsp/\libucosii_bsp.a(os_core.o)

Memory Configuration

Name             Origin             Length             Attributes
sdram_0_BEFORE_EXCEPTION 0x00800000         0x00000020
sdram_0          0x00800020         0x007fffe0
reset            0x01400000         0x00000020
cfi_flash_0      0x01400020         0x003fffe0
sram_0           0x01a00000         0x00080000
epcs_controller  0x01a81800         0x00000800
*default*        0x00000000         0xffffffff

Linker script and memory map

LOAD ../server1_bsp//obj/HAL/src/crt0.o
LOAD obj/default/LCD.o
LOAD obj/default/SSS_DE2_115.o
LOAD obj/default/alt_error_handler.o
LOAD obj/default/dm9000a.o
LOAD obj/default/iniche_init.o
LOAD obj/default/led.o
LOAD obj/default/network_utilities.o
LOAD obj/default/simple_socket_server.o
LOAD obj/default/tse_my_system.o
LOAD c:/altera/13.0sp1/nios2eds/bin/gnu/h-i686-mingw32/bin/../lib/gcc/nios2-elf/4.1.2/../../../../nios2-elf/lib\libstdc++.a
LOAD c:/altera/13.0sp1/nios2eds/bin/gnu/h-i686-mingw32/bin/../lib/gcc/nios2-elf/4.1.2/../../../../nios2-elf/lib\libm.a
LOAD c:/altera/13.0sp1/nios2eds/bin/gnu/h-i686-mingw32/bin/../lib/gcc/nios2-elf/4.1.2\libgcc.a
START GROUP
LOAD c:/altera/13.0sp1/nios2eds/bin/gnu/h-i686-mingw32/bin/../lib/gcc/nios2-elf/4.1.2/../../../../nios2-elf/lib\libc.a
LOAD c:/altera/13.0sp1/nios2eds/bin/gnu/h-i686-mingw32/bin/../lib/gcc/nios2-elf/4.1.2\libgcc.a
LOAD ../server1_bsp/\libucosii_bsp.a
END GROUP
LOAD c:/altera/13.0sp1/nios2eds/bin/gnu/h-i686-mingw32/bin/../lib/gcc/nios2-elf/4.1.2\libgcc.a
                0x00800000                __alt_mem_sdram_0 = 0x800000
                0x01400000                __alt_mem_cfi_flash_0 = 0x1400000
                0x01a00000                __alt_mem_sram_0 = 0x1a00000
                0x01a81800                __alt_mem_epcs_controller = 0x1a81800

.entry          0x01400000        0x0
 *(.entry)
 .entry         0x01400000        0x0 ../server1_bsp//obj/HAL/src/crt0.o
                0x01400000                __reset

.exceptions     0x00800020      0x19c
                0x00800020                PROVIDE (__ram_exceptions_start, ABSOLUTE (.))
                0x00800020                . = ALIGN (0x20)
 *(.irq)
 *(.exceptions.entry.label)
 .exceptions.entry.label
                0x00800020        0x0 ../server1_bsp/\libucosii_bsp.a(alt_irq_entry.o)
                0x00800020                alt_irq_entry
 .exceptions.entry.label
                0x00800020        0x0 ../server1_bsp/\libucosii_bsp.a(alt_exception_entry.o)
                0x00800020                alt_exception
 *(.exceptions.entry.user)
 *(.exceptions.entry)
 .exceptions.entry
                0x00800020       0x54 ../server1_bsp/\libucosii_bsp.a(alt_exception_entry.o)
 *(.exceptions.irqtest.user)
 *(.exceptions.irqtest)
 .exceptions.irqtest
                0x00800074       0x10 ../server1_bsp/\libucosii_bsp.a(alt_irq_entry.o)
 *(.exceptions.irqhandler.user)
 *(.exceptions.irqhandler)
 .exceptions.irqhandler
                0x00800084        0x4 ../server1_bsp/\libucosii_bsp.a(alt_irq_entry.o)
 *(.exceptions.irqreturn.user)
 *(.exceptions.irqreturn)
 .exceptions.irqreturn
                0x00800088        0x4 ../server1_bsp/\libucosii_bsp.a(alt_irq_entry.o)
 *(.exceptions.notirq.label)
 .exceptions.notirq.label
                0x0080008c        0x0 ../server1_bsp/\libucosii_bsp.a(alt_irq_entry.o)
 *(.exceptions.notirq.user)
 *(.exceptions.notirq)
 .exceptions.notirq
                0x0080008c        0x8 ../server1_bsp/\libucosii_bsp.a(alt_exception_entry.o)
 *(.exceptions.soft.user)
 *(.exceptions.soft)
 *(.exceptions.unknown.user)
 *(.exceptions.unknown)
 .exceptions.unknown
                0x00800094        0x4 ../server1_bsp/\libucosii_bsp.a(alt_exception_entry.o)
 *(.exceptions.exit.label)
 .exceptions.exit.label
                0x00800098        0x0 ../server1_bsp/\libucosii_bsp.a(alt_irq_entry.o)
 .exceptions.exit.label
                0x00800098        0x0 ../server1_bsp/\libucosii_bsp.a(alt_exception_entry.o)
 *(.exceptions.exit.user)
 *(.exceptions.exit)
 .exceptions.exit
                0x00800098       0x54 ../server1_bsp/\libucosii_bsp.a(alt_exception_entry.o)
 *(.exceptions)
 .exceptions    0x008000ec       0xd0 ../server1_bsp/\libucosii_bsp.a(alt_irq_handler.o)
                0x008000ec                alt_irq_handler
                0x008001bc                PROVIDE (__ram_exceptions_end, ABSOLUTE (.))
                0x00800020                PROVIDE (__flash_exceptions_start, LOADADDR (.exceptions))

.text           0x008001bc    0x473f0
                0x008001bc                PROVIDE (stext, ABSOLUTE (.))
 *(.interp)
 *(.hash)
 *(.dynsym)
 *(.dynstr)
 *(.gnu.version)
 *(.gnu.version_d)
 *(.gnu.version_r)
 *(.rel.init)
 *(.rela.init)
 *(.rel.text .rel.text.* .rel.gnu.linkonce.t.*)
 *(.rela.text .rela.text.* .rela.gnu.linkonce.t.*)
 *(.rel.fini)
 *(.rela.fini)
 *(.rel.rodata .rel.rodata.* .rel.gnu.linkonce.r.*)
 *(.rela.rodata .rela.rodata.* .rela.gnu.linkonce.r.*)
 *(.rel.data .rel.data.* .rel.gnu.linkonce.d.*)
 *(.rela.data .rela.data.* .rela.gnu.linkonce.d.*)
 *(.rel.tdata .rel.tdata.* .rel.gnu.linkonce.td.*)
 *(.rela.tdata .rela.tdata.* .rela.gnu.linkonce.td.*)
 *(.rel.tbss .rel.tbss.* .rel.gnu.linkonce.tb.*)
 *(.rela.tbss .rela.tbss.* .rela.gnu.linkonce.tb.*)
 *(.rel.ctors)
 *(.rela.ctors)
 *(.rel.dtors)
 *(.rela.dtors)
 *(.rel.got)
 *(.rela.got)
 *(.rel.sdata .rel.sdata.* .rel.gnu.linkonce.s.*)
 *(.rela.sdata .rela.sdata.* .rela.gnu.linkonce.s.*)
 *(.rel.sbss .rel.sbss.* .rel.gnu.linkonce.sb.*)
 *(.rela.sbss .rela.sbss.* .rela.gnu.linkonce.sb.*)
 *(.rel.sdata2 .rel.sdata2.* .rel.gnu.linkonce.s2.*)
 *(.rela.sdata2 .rela.sdata2.* .rela.gnu.linkonce.s2.*)
 *(.rel.sbss2 .rel.sbss2.* .rel.gnu.linkonce.sb2.*)
 *(.rela.sbss2 .rela.sbss2.* .rela.gnu.linkonce.sb2.*)
 *(.rel.bss .rel.bss.* .rel.gnu.linkonce.b.*)
 *(.rela.bss .rela.bss.* .rela.gnu.linkonce.b.*)
 *(.rel.plt)
 *(.rela.plt)
 *(.rel.dyn)
 *(.init)
 *(.plt)
 *(.text .stub .text.* .gnu.linkonce.t.*)
 .text          0x008001bc       0x48 ../server1_bsp//obj/HAL/src/crt0.o
                0x008001bc                _start
 .text          0x00800204      0x31c obj/default/LCD.o
                0x00800204                LCD_Init
                0x008002a0                LCD_Show_Text
                0x00800328                LCD_Line2
                0x00800364                LCD_Line1
                0x008003a0                LCD_Clear
                0x008003dc                LCD_Test
 .text          0x00800520      0x2ec obj/default/SSS_DE2_115.o
                0x00800520                get_DE2_115_mac_addr
                0x008006c8                FindLastFlashSectorOffset
 .text          0x0080080c      0xba8 obj/default/alt_error_handler.o
                0x0080080c                alt_uCOSIIErrorHandler
                0x00800e30                alt_NetworkErrorHandler
                0x008010c8                alt_SSSErrorHandler
 .text          0x008013b4      0xe48 obj/default/dm9000a.o
                0x008013b4                dm9000a_iow
                0x00801408                dm9000a_ior
                0x00801454                phy_write
                0x008014f0                dm9000a_reset
                0x008016b4                TransmitPacket
                0x008017d0                prep_dm9000a
                0x008019ec                dm9000a_init
                0x00801e3c                dm9Ka_isr_wrap
                0x00801e7c                dm9ka_init
                0x00801f74                dm9ka_close
                0x00802084                dm9ka_stats
                0x008020e0                dm9ka_pkt_send
 .text          0x008021fc      0x78c obj/default/iniche_init.o
                0x008021fc                print_float
                0x0080228c                print_float32
                0x00802318                print_half
                0x008023a0                as_uint
                0x008023c8                as_float
                0x008023f0                half_to_float
                0x008024e0                float_to_half
                0x008025f8                SSSInitialTask
                0x0080288c                main
 .text          0x00802988      0x324 obj/default/led.o
                0x00802988                led_bit_toggle
                0x00802a54                LED7SegLightshowTask
                0x00802ac8                LEDManagementTask
 .text          0x00802cac      0x70c obj/default/network_utilities.o
                0x00802cac                get_mac_addr
                0x00802d04                get_ip_addr
                0x00802d60                get_serial_number
                0x00802f3c                generate_and_store_mac_addr
                0x008030e8                generate_mac_addr
                0x00803224                get_board_mac_addr
 .text          0x008033b8      0x968 obj/default/simple_socket_server.o
                0x008033b8                SSSCreateOSDataStructs
                0x00803460                SSSCreateTasks
                0x00803524                sss_reset_connection
                0x00803594                sss_send_menu
                0x00803724                sss_handle_accept
                0x008037e4                sss_exec_command
                0x00803988                sss_handle_receive
                0x00803b74                SSSSimpleSocketServerTask
 .text          0x00803d20        0x0 obj/default/tse_my_system.o
 .text          0x00803d20       0xa4 c:/altera/13.0sp1/nios2eds/bin/gnu/h-i686-mingw32/bin/../lib/gcc/nios2-elf/4.1.2\libgcc.a(_fixunsdfsi.o)
                0x00803d20                __fixunsdfsi
 .text          0x00803dc4       0x98 c:/altera/13.0sp1/nios2eds/bin/gnu/h-i686-mingw32/bin/../lib/gcc/nios2-elf/4.1.2\libgcc.a(_si_to_sf.o)
                0x00803dc4                __floatsisf
 .text          0x00803e5c       0x94 c:/altera/13.0sp1/nios2eds/bin/gnu/h-i686-mingw32/bin/../lib/gcc/nios2-elf/4.1.2\libgcc.a(_sf_to_si.o)
                0x00803e5c                __fixsfsi
 .text          0x00803ef0       0xc0 c:/altera/13.0sp1/nios2eds/bin/gnu/h-i686-mingw32/bin/../lib/gcc/nios2-elf/4.1.2\libgcc.a(_usi_to_sf.o)
                0x00803ef0                __floatunsisf
 .text          0x00803fb0      0x504 c:/altera/13.0sp1/nios2eds/bin/gnu/h-i686-mingw32/bin/../lib/gcc/nios2-elf/4.1.2\libgcc.a(_addsub_df.o)
                0x008043c0                __subdf3
                0x00804440                __adddf3
 .text          0x008044b4      0x3c4 c:/altera/13.0sp1/nios2eds/bin/gnu/h-i686-mingw32/bin/../lib/gcc/nios2-elf/4.1.2\libgcc.a(_mul_df.o)
                0x008044b4                __muldf3
 .text          0x00804878       0x88 c:/altera/13.0sp1/nios2eds/bin/gnu/h-i686-mingw32/bin/../lib/gcc/nios2-elf/4.1.2\libgcc.a(_ge_df.o)
                0x00804878                __gedf2
 .text          0x00804900       0xd8 c:/altera/13.0sp1/nios2eds/bin/gnu/h-i686-mingw32/bin/../lib/gcc/nios2-elf/4.1.2\libgcc.a(_df_to_si.o)
                0x00804900                __fixdfsi
 .text          0x008049d8        0x0 c:/altera/13.0sp1/nios2eds/bin/gnu/h-i686-mingw32/bin/../lib/gcc/nios2-elf/4.1.2\libgcc.a(_thenan_df.o)
 .text          0x008049d8      0x194 c:/altera/13.0sp1/nios2eds/bin/gnu/h-i686-mingw32/bin/../lib/gcc/nios2-elf/4.1.2\libgcc.a(_usi_to_df.o)
                0x008049d8                __floatunsidf
 .text          0x00804b6c       0x98 c:/altera/13.0sp1/nios2eds/bin/gnu/h-i686-mingw32/bin/../lib/gcc/nios2-elf/4.1.2\libgcc.a(_muldi3.o)
                0x00804b6c                __muldi3
 .text          0x00804c04       0x80 c:/altera/13.0sp1/nios2eds/bin/gnu/h-i686-mingw32/bin/../lib/gcc/nios2-elf/4.1.2\libgcc.a(_clzsi2.o)
                0x00804c04                __clzsi2
 .text          0x00804c84      0x160 c:/altera/13.0sp1/nios2eds/bin/gnu/h-i686-mingw32/bin/../lib/gcc/nios2-elf/4.1.2\libgcc.a(_pack_sf.o)
                0x00804c84                __pack_f
 .text          0x00804de4       0xc8 c:/altera/13.0sp1/nios2eds/bin/gnu/h-i686-mingw32/bin/../lib/gcc/nios2-elf/4.1.2\libgcc.a(_unpack_sf.o)
                0x00804de4                __unpack_f
 .text          0x00804eac      0x314 c:/altera/13.0sp1/nios2eds/bin/gnu/h-i686-mingw32/bin/../lib/gcc/nios2-elf/4.1.2\libgcc.a(_pack_df.o)
                0x00804eac                __pack_d
 .text          0x008051c0      0x138 c:/altera/13.0sp1/nios2eds/bin/gnu/h-i686-mingw32/bin/../lib/gcc/nios2-elf/4.1.2\libgcc.a(_unpack_df.o)
                0x008051c0                __unpack_d
 .text          0x008052f8       0xc8 c:/altera/13.0sp1/nios2eds/bin/gnu/h-i686-mingw32/bin/../lib/gcc/nios2-elf/4.1.2\libgcc.a(_fpcmp_parts_df.o)
                0x008052f8                __fpcmp_parts_d
 .text          0x008053c0        0x0 c:/altera/13.0sp1/nios2eds/bin/gnu/h-i686-mingw32/bin/../lib/gcc/nios2-elf/4.1.2\libgcc.a(_clz.o)
 .text          0x008053c0        0x0 c:/altera/13.0sp1/nios2eds/bin/gnu/h-i686-mingw32/bin/../lib/gcc/nios2-elf/4.1.2/../../../../nios2-elf/lib\libc.a(lib_a-ctype_.o)
 .text          0x008053c0       0x38 c:/altera/13.0sp1/nios2eds/bin/gnu/h-i686-mingw32/bin/../lib/gcc/nios2-elf/4.1.2/../../../../nios2-elf/lib\libc.a(lib_a-exit.o)
                0x008053c0                exit
 .text          0x008053f8       0x60 c:/altera/13.0sp1/nios2eds/bin/gnu/h-i686-mingw32/bin/../lib/gcc/nios2-elf/4.1.2/../../../../nios2-elf/lib\libc.a(lib_a-fprintf.o)
                0x008053f8                fprintf
                0x00805424                _fprintf_r
 .text          0x00805458       0xdc c:/altera/13.0sp1/nios2eds/bin/gnu/h-i686-mingw32/bin/../lib/gcc/nios2-elf/4.1.2/../../../../nios2-elf/lib\libc.a(lib_a-fwrite.o)
                0x00805458                _fwrite_r
                0x008054f4                fwrite
 .text          0x00805534      0x128 c:/altera/13.0sp1/nios2eds/bin/gnu/h-i686-mingw32/bin/../lib/gcc/nios2-elf/4.1.2/../../../../nios2-elf/lib\libc.a(lib_a-getc.o)
                0x00805534                getc
                0x008055cc                _getc_r
 .text          0x0080565c        0x0 c:/altera/13.0sp1/nios2eds/bin/gnu/h-i686-mingw32/bin/../lib/gcc/nios2-elf/4.1.2/../../../../nios2-elf/lib\libc.a(lib_a-impure.o)
 .text          0x0080565c       0xa0 c:/altera/13.0sp1/nios2eds/bin/gnu/h-i686-mingw32/bin/../lib/gcc/nios2-elf/4.1.2/../../../../nios2-elf/lib\libc.a(lib_a-memcpy.o)
                0x0080565c                memcpy
 .text          0x008056fc       0xe0 c:/altera/13.0sp1/nios2eds/bin/gnu/h-i686-mingw32/bin/../lib/gcc/nios2-elf/4.1.2/../../../../nios2-elf/lib\libc.a(lib_a-memmove.o)
                0x008056fc                memmove
 .text          0x008057dc       0x98 c:/altera/13.0sp1/nios2eds/bin/gnu/h-i686-mingw32/bin/../lib/gcc/nios2-elf/4.1.2/../../../../nios2-elf/lib\libc.a(lib_a-memset.o)
                0x008057dc                memset
 .text          0x00805874       0x80 c:/altera/13.0sp1/nios2eds/bin/gnu/h-i686-mingw32/bin/../lib/gcc/nios2-elf/4.1.2/../../../../nios2-elf/lib\libc.a(lib_a-perror.o)
                0x00805874                _perror_r
                0x008058e0                perror
 .text          0x008058f4       0x78 c:/altera/13.0sp1/nios2eds/bin/gnu/h-i686-mingw32/bin/../lib/gcc/nios2-elf/4.1.2/../../../../nios2-elf/lib\libc.a(lib_a-printf.o)
                0x008058f4                printf
                0x00805938                _printf_r
 .text          0x0080596c      0x1ec c:/altera/13.0sp1/nios2eds/bin/gnu/h-i686-mingw32/bin/../lib/gcc/nios2-elf/4.1.2/../../../../nios2-elf/lib\libc.a(lib_a-putc.o)
                0x0080596c                putc
                0x00805a70                _putc_r
 .text          0x00805b58       0x24 c:/altera/13.0sp1/nios2eds/bin/gnu/h-i686-mingw32/bin/../lib/gcc/nios2-elf/4.1.2/../../../../nios2-elf/lib\libc.a(lib_a-putchar.o)
                0x00805b58                putchar
                0x00805b74                _putchar_r
 .text          0x00805b7c       0xb4 c:/altera/13.0sp1/nios2eds/bin/gnu/h-i686-mingw32/bin/../lib/gcc/nios2-elf/4.1.2/../../../../nios2-elf/lib\libc.a(lib_a-puts.o)
                0x00805b7c                _puts_r
                0x00805c1c                puts
 .text          0x00805c30       0x60 c:/altera/13.0sp1/nios2eds/bin/gnu/h-i686-mingw32/bin/../lib/gcc/nios2-elf/4.1.2/../../../../nios2-elf/lib\libc.a(lib_a-rget.o)
                0x00805c30                __srget_r
                0x00805c7c                __srget
 .text          0x00805c90       0xd4 c:/altera/13.0sp1/nios2eds/bin/gnu/h-i686-mingw32/bin/../lib/gcc/nios2-elf/4.1.2/../../../../nios2-elf/lib\libc.a(lib_a-sprintf.o)
                0x00805c90                sprintf
                0x00805d04                _sprintf_r
 .text          0x00805d64       0xe0 c:/altera/13.0sp1/nios2eds/bin/gnu/h-i686-mingw32/bin/../lib/gcc/nios2-elf/4.1.2/../../../../nios2-elf/lib\libc.a(lib_a-strchr.o)
                0x00805d64                strchr
 .text          0x00805e44      0x674 c:/altera/13.0sp1/nios2eds/bin/gnu/h-i686-mingw32/bin/../lib/gcc/nios2-elf/4.1.2/../../../../nios2-elf/lib\libc.a(lib_a-strerror.o)
                0x00805e44                strerror
 .text          0x008064b8       0x74 c:/altera/13.0sp1/nios2eds/bin/gnu/h-i686-mingw32/bin/../lib/gcc/nios2-elf/4.1.2/../../../../nios2-elf/lib\libc.a(lib_a-strlen.o)
                0x008064b8                strlen
 .text          0x0080652c        0x8 c:/altera/13.0sp1/nios2eds/bin/gnu/h-i686-mingw32/bin/../lib/gcc/nios2-elf/4.1.2/../../../../nios2-elf/lib\libc.a(lib_a-u_strerr.o)
                0x0080652c                _user_strerror
 .text          0x00806534     0x1f28 c:/altera/13.0sp1/nios2eds/bin/gnu/h-i686-mingw32/bin/../lib/gcc/nios2-elf/4.1.2/../../../../nios2-elf/lib\libc.a(lib_a-vfprintf.o)
                0x0080658c                ___vfprintf_internal_r
                0x00808438                __vfprintf_internal
 .text          0x0080845c      0x14c c:/altera/13.0sp1/nios2eds/bin/gnu/h-i686-mingw32/bin/../lib/gcc/nios2-elf/4.1.2/../../../../nios2-elf/lib\libc.a(lib_a-wbuf.o)
                0x0080845c                __swbuf_r
                0x0080858c                __swbuf
 .text          0x008085a8      0x13c c:/altera/13.0sp1/nios2eds/bin/gnu/h-i686-mingw32/bin/../lib/gcc/nios2-elf/4.1.2/../../../../nios2-elf/lib\libc.a(lib_a-wsetup.o)
                0x008085a8                __swsetup_r
 .text          0x008086e4      0x1b4 c:/altera/13.0sp1/nios2eds/bin/gnu/h-i686-mingw32/bin/../lib/gcc/nios2-elf/4.1.2/../../../../nios2-elf/lib\libc.a(lib_a-__call_atexit.o)
                0x008086e8                __call_exitprocs
 .text          0x00808898     0x17cc c:/altera/13.0sp1/nios2eds/bin/gnu/h-i686-mingw32/bin/../lib/gcc/nios2-elf/4.1.2/../../../../nios2-elf/lib\libc.a(lib_a-dtoa.o)
                0x00808ab0                _dtoa_r
 .text          0x0080a064      0x230 c:/altera/13.0sp1/nios2eds/bin/gnu/h-i686-mingw32/bin/../lib/gcc/nios2-elf/4.1.2/../../../../nios2-elf/lib\libc.a(lib_a-fflush.o)
                0x0080a064                _fflush_r
                0x0080a260                fflush
 .text          0x0080a294      0x2c0 c:/altera/13.0sp1/nios2eds/bin/gnu/h-i686-mingw32/bin/../lib/gcc/nios2-elf/4.1.2/../../../../nios2-elf/lib\libc.a(lib_a-findfp.o)
                0x0080a2ec                __sfp_lock_acquire
                0x0080a2f0                __sfp_lock_release
                0x0080a2f4                __sinit_lock_acquire
                0x0080a2f8                __sinit_lock_release
                0x0080a2fc                __sinit
                0x0080a3b0                __fp_unlock_all
                0x0080a3c8                __fp_lock_all
                0x0080a3e0                _cleanup_r
                0x0080a3ec                _cleanup
                0x0080a3fc                __sfmoreglue
                0x0080a464                __sfp
 .text          0x0080a554       0xbc c:/altera/13.0sp1/nios2eds/bin/gnu/h-i686-mingw32/bin/../lib/gcc/nios2-elf/4.1.2/../../../../nios2-elf/lib\libc.a(lib_a-fputc.o)
                0x0080a554                fputc
                0x0080a5b8                _fputc_r
 .text          0x0080a610       0x90 c:/altera/13.0sp1/nios2eds/bin/gnu/h-i686-mingw32/bin/../lib/gcc/nios2-elf/4.1.2/../../../../nios2-elf/lib\libc.a(lib_a-fputs.o)
                0x0080a610                _fputs_r
                0x0080a684                fputs
 .text          0x0080a6a0      0x440 c:/altera/13.0sp1/nios2eds/bin/gnu/h-i686-mingw32/bin/../lib/gcc/nios2-elf/4.1.2/../../../../nios2-elf/lib\libc.a(lib_a-freer.o)
                0x0080a6a0                _malloc_trim_r
                0x0080a7cc                _free_r
 .text          0x0080aae0      0x49c c:/altera/13.0sp1/nios2eds/bin/gnu/h-i686-mingw32/bin/../lib/gcc/nios2-elf/4.1.2/../../../../nios2-elf/lib\libc.a(lib_a-fvwrite.o)
                0x0080aae0                __sfvwrite_r
 .text          0x0080af7c      0x180 c:/altera/13.0sp1/nios2eds/bin/gnu/h-i686-mingw32/bin/../lib/gcc/nios2-elf/4.1.2/../../../../nios2-elf/lib\libc.a(lib_a-fwalk.o)
                0x0080af7c                _fwalk_reent
                0x0080b044                _fwalk
 .text          0x0080b0fc       0xc4 c:/altera/13.0sp1/nios2eds/bin/gnu/h-i686-mingw32/bin/../lib/gcc/nios2-elf/4.1.2/../../../../nios2-elf/lib\libc.a(lib_a-locale.o)
                0x0080b0fc                __locale_charset
                0x0080b104                _localeconv_r
                0x0080b110                localeconv
                0x0080b120                _setlocale_r
                0x0080b1a4                setlocale
 .text          0x0080b1c0      0x194 c:/altera/13.0sp1/nios2eds/bin/gnu/h-i686-mingw32/bin/../lib/gcc/nios2-elf/4.1.2/../../../../nios2-elf/lib\libc.a(lib_a-makebuf.o)
                0x0080b1c0                __smakebuf_r
 .text          0x0080b354      0x740 c:/altera/13.0sp1/nios2eds/bin/gnu/h-i686-mingw32/bin/../lib/gcc/nios2-elf/4.1.2/../../../../nios2-elf/lib\libc.a(lib_a-mallocr.o)
                0x0080b354                _malloc_r
 .text          0x0080ba94       0xe4 c:/altera/13.0sp1/nios2eds/bin/gnu/h-i686-mingw32/bin/../lib/gcc/nios2-elf/4.1.2/../../../../nios2-elf/lib\libc.a(lib_a-memchr.o)
                0x0080ba94                memchr
 .text          0x0080bb78      0xff4 c:/altera/13.0sp1/nios2eds/bin/gnu/h-i686-mingw32/bin/../lib/gcc/nios2-elf/4.1.2/../../../../nios2-elf/lib\libc.a(lib_a-mprec.o)
                0x0080bb78                _Bfree
                0x0080bba0                __hi0bits
                0x0080bc10                __lo0bits
                0x0080bcd4                __mcmp
                0x0080bd34                __ulp
                0x0080bdb4                __b2d
                0x0080bed4                __ratio
                0x0080bf84                _mprec_log10
                0x0080c018                __copybits
                0x0080c070                __any_on
                0x0080c0f8                _Balloc
                0x0080c1b4                __d2b
                0x0080c330                __mdiff
                0x0080c4bc                __lshift
                0x0080c608                __multiply
                0x0080c7f0                __i2b
                0x0080c82c                __multadd
                0x0080c92c                __pow5mult
                0x0080ca4c                __s2b
 .text          0x0080cb6c      0x5f4 c:/altera/13.0sp1/nios2eds/bin/gnu/h-i686-mingw32/bin/../lib/gcc/nios2-elf/4.1.2/../../../../nios2-elf/lib\libc.a(lib_a-reallocr.o)
                0x0080cb6c                _realloc_r
 .text          0x0080d160      0x1e0 c:/altera/13.0sp1/nios2eds/bin/gnu/h-i686-mingw32/bin/../lib/gcc/nios2-elf/4.1.2/../../../../nios2-elf/lib\libc.a(lib_a-refill.o)
                0x0080d160                __srefill_r
 .text          0x0080d340       0x40 c:/altera/13.0sp1/nios2eds/bin/gnu/h-i686-mingw32/bin/../lib/gcc/nios2-elf/4.1.2/../../../../nios2-elf/lib\libc.a(lib_a-s_isinfd.o)
                0x0080d340                __isinfd
 .text          0x0080d380       0x30 c:/altera/13.0sp1/nios2eds/bin/gnu/h-i686-mingw32/bin/../lib/gcc/nios2-elf/4.1.2/../../../../nios2-elf/lib\libc.a(lib_a-s_isnand.o)
                0x0080d380                __isnand
 .text          0x0080d3b0       0x70 c:/altera/13.0sp1/nios2eds/bin/gnu/h-i686-mingw32/bin/../lib/gcc/nios2-elf/4.1.2/../../../../nios2-elf/lib\libc.a(lib_a-sbrkr.o)
                0x0080d3b0                _sbrk_r
 .text          0x0080d420      0x14c c:/altera/13.0sp1/nios2eds/bin/gnu/h-i686-mingw32/bin/../lib/gcc/nios2-elf/4.1.2/../../../../nios2-elf/lib\libc.a(lib_a-stdio.o)
                0x0080d420                __sclose
                0x0080d428                __sseek
                0x0080d490                __swrite
                0x0080d50c                __sread
 .text          0x0080d56c       0xbc c:/altera/13.0sp1/nios2eds/bin/gnu/h-i686-mingw32/bin/../lib/gcc/nios2-elf/4.1.2/../../../../nios2-elf/lib\libc.a(lib_a-strcmp.o)
                0x0080d56c                strcmp
 .text          0x0080d628       0x78 c:/altera/13.0sp1/nios2eds/bin/gnu/h-i686-mingw32/bin/../lib/gcc/nios2-elf/4.1.2/../../../../nios2-elf/lib\libc.a(lib_a-writer.o)
                0x0080d628                _write_r
 .text          0x0080d6a0       0xb4 c:/altera/13.0sp1/nios2eds/bin/gnu/h-i686-mingw32/bin/../lib/gcc/nios2-elf/4.1.2/../../../../nios2-elf/lib\libc.a(lib_a-callocr.o)
                0x0080d6a0                _calloc_r
 .text          0x0080d754       0x70 c:/altera/13.0sp1/nios2eds/bin/gnu/h-i686-mingw32/bin/../lib/gcc/nios2-elf/4.1.2/../../../../nios2-elf/lib\libc.a(lib_a-closer.o)
                0x0080d754                _close_r
 .text          0x0080d7c4      0x124 c:/altera/13.0sp1/nios2eds/bin/gnu/h-i686-mingw32/bin/../lib/gcc/nios2-elf/4.1.2/../../../../nios2-elf/lib\libc.a(lib_a-fclose.o)
                0x0080d7c4                _fclose_r
                0x0080d8d4                fclose
 .text          0x0080d8e8       0x74 c:/altera/13.0sp1/nios2eds/bin/gnu/h-i686-mingw32/bin/../lib/gcc/nios2-elf/4.1.2/../../../../nios2-elf/lib\libc.a(lib_a-fstatr.o)
                0x0080d8e8                _fstat_r
 .text          0x0080d95c        0x0 c:/altera/13.0sp1/nios2eds/bin/gnu/h-i686-mingw32/bin/../lib/gcc/nios2-elf/4.1.2/../../../../nios2-elf/lib\libc.a(lib_a-int_errno.o)
 .text          0x0080d95c       0x70 c:/altera/13.0sp1/nios2eds/bin/gnu/h-i686-mingw32/bin/../lib/gcc/nios2-elf/4.1.2/../../../../nios2-elf/lib\libc.a(lib_a-isattyr.o)
                0x0080d95c                _isatty_r
 .text          0x0080d9cc       0x78 c:/altera/13.0sp1/nios2eds/bin/gnu/h-i686-mingw32/bin/../lib/gcc/nios2-elf/4.1.2/../../../../nios2-elf/lib\libc.a(lib_a-lseekr.o)
                0x0080d9cc                _lseek_r
 .text          0x0080da44       0x78 c:/altera/13.0sp1/nios2eds/bin/gnu/h-i686-mingw32/bin/../lib/gcc/nios2-elf/4.1.2/../../../../nios2-elf/lib\libc.a(lib_a-readr.o)
                0x0080da44                _read_r
 .text          0x0080dabc      0x5dc c:/altera/13.0sp1/nios2eds/bin/gnu/h-i686-mingw32/bin/../lib/gcc/nios2-elf/4.1.2\libgcc.a(_udivdi3.o)
                0x0080dabc                __udivdi3
 .text          0x0080e098      0x5b0 c:/altera/13.0sp1/nios2eds/bin/gnu/h-i686-mingw32/bin/../lib/gcc/nios2-elf/4.1.2\libgcc.a(_umoddi3.o)
                0x0080e098                __umoddi3
 .text          0x0080e648      0x258 c:/altera/13.0sp1/nios2eds/bin/gnu/h-i686-mingw32/bin/../lib/gcc/nios2-elf/4.1.2\libgcc.a(_div_df.o)
                0x0080e648                __divdf3
 .text          0x0080e8a0       0x88 c:/altera/13.0sp1/nios2eds/bin/gnu/h-i686-mingw32/bin/../lib/gcc/nios2-elf/4.1.2\libgcc.a(_eq_df.o)
                0x0080e8a0                __eqdf2
 .text          0x0080e928       0x88 c:/altera/13.0sp1/nios2eds/bin/gnu/h-i686-mingw32/bin/../lib/gcc/nios2-elf/4.1.2\libgcc.a(_ne_df.o)
                0x0080e928                __nedf2
 .text          0x0080e9b0       0x88 c:/altera/13.0sp1/nios2eds/bin/gnu/h-i686-mingw32/bin/../lib/gcc/nios2-elf/4.1.2\libgcc.a(_gt_df.o)
                0x0080e9b0                __gtdf2
 .text          0x0080ea38       0x88 c:/altera/13.0sp1/nios2eds/bin/gnu/h-i686-mingw32/bin/../lib/gcc/nios2-elf/4.1.2\libgcc.a(_lt_df.o)
                0x0080ea38                __ltdf2
 .text          0x0080eac0       0xf8 c:/altera/13.0sp1/nios2eds/bin/gnu/h-i686-mingw32/bin/../lib/gcc/nios2-elf/4.1.2\libgcc.a(_si_to_df.o)
                0x0080eac0                __floatsidf
 .text          0x0080ebb8      0x14c c:/altera/13.0sp1/nios2eds/bin/gnu/h-i686-mingw32/bin/../lib/gcc/nios2-elf/4.1.2\libgcc.a(lib2-divmod.o)
                0x0080ec34                __divsi3
                0x0080ec94                __modsi3
                0x0080ecf4                __udivsi3
                0x0080ecfc                __umodsi3
 .text          0x0080ed04       0x6c ../server1_bsp/\libucosii_bsp.a(alt_exit.o)
                0x0080ed44                _exit
 .text          0x0080ed70       0xd0 ../server1_bsp/\libucosii_bsp.a(alt_flash_dev.o)
                0x0080ed70                alt_flash_open_dev
                0x0080edec                alt_flash_close_dev
 .text          0x0080ee40      0x134 ../server1_bsp/\libucosii_bsp.a(alt_fstat.o)
                0x0080ee40                fstat
 .text          0x0080ef74      0x1c0 ../server1_bsp/\libucosii_bsp.a(alt_irq_register.o)
                0x0080ef74                alt_irq_register
 .text          0x0080f134        0x0 ../server1_bsp/\libucosii_bsp.a(alt_irq_vars.o)
 .text          0x0080f134      0x120 ../server1_bsp/\libucosii_bsp.a(alt_isatty.o)
                0x0080f134                isatty
 .text          0x0080f254      0x150 ../server1_bsp/\libucosii_bsp.a(alt_lseek.o)
                0x0080f254                lseek
 .text          0x0080f3a4       0xc8 ../server1_bsp/\libucosii_bsp.a(alt_main.o)
                0x0080f3a4                alt_main
 .text          0x0080f46c       0xbc ../server1_bsp/\libucosii_bsp.a(alt_sbrk.o)
                0x0080f46c                sbrk
 .text          0x0080f528      0x118 ../server1_bsp/\libucosii_bsp.a(alt_usleep.o)
                0x0080f528                usleep
 .text          0x0080f640      0x108 ../server1_bsp/\libucosii_bsp.a(alt_env_lock.o)
                0x0080f640                __env_lock
                0x0080f6ec                __env_unlock
 .text          0x0080f748      0x1d8 ../server1_bsp/\libucosii_bsp.a(alt_malloc_lock.o)
                0x0080f748                __malloc_lock
                0x0080f850                __malloc_unlock
 .text          0x0080f920     0x2128 ../server1_bsp/\libucosii_bsp.a(os_core.o)
                0x0080f920                OSEventNameGet
                0x0080fa50                OSEventNameSet
                0x0080fb94                OSEventPendMulti
                0x00810248                OSInit
                0x0081029c                OSIntEnter
                0x00810318                OSIntExit
                0x00810418                OSSchedLock
                0x008104a4                OSSchedUnlock
                0x00810588                OSStart
                0x008105f8                OSStatInit
                0x008106a4                OSTimeTick
                0x008108e4                OSVersion
                0x00810904                OS_Dummy
                0x00810920                OS_EventTaskRdy
                0x00810ab4                OS_EventTaskWait
                0x00810bc4                OS_EventTaskWaitMulti
                0x00810d18                OS_EventTaskRemove
                0x00810dd0                OS_EventTaskRemoveMulti
                0x00810ed4                OS_EventWaitListInit
                0x008112a0                OS_MemClr
                0x008112f4                OS_MemCopy
                0x00811360                OS_Sched
                0x008114a4                OS_StrCopy
                0x00811524                OS_StrLen
                0x0081157c                OS_TaskIdle
                0x008115d8                OS_TaskStat
                0x008116a0                OS_TaskStatStkChk
                0x00811768                OS_TCBInit
 .text          0x00811a48      0x18c ../server1_bsp/\libucosii_bsp.a(os_dbg.o)
                0x00811a48                OSDebugInit
 .text          0x00811bd4     0x193c ../server1_bsp/\libucosii_bsp.a(os_flag.o)
                0x00811bd4                OSFlagAccept
                0x00811f08                OSFlagCreate
                0x00812044                OSFlagDel
                0x008122ec                OSFlagNameGet
                0x00812430                OSFlagNameSet
                0x00812584                OSFlagPend
                0x00812bc8                OSFlagPendGetFlagsRdy
                0x00812c30                OSFlagPost
                0x00812fd8                OSFlagQuery
                0x00813270                OS_FlagInit
                0x00813464                OS_FlagUnlink
 .text          0x00813510      0x808 ../server1_bsp/\libucosii_bsp.a(os_mem.o)
                0x00813510                OSMemCreate
                0x0081372c                OSMemGet
                0x00813830                OSMemNameGet
                0x0081393c                OSMemNameSet
                0x00813a5c                OSMemPut
                0x00813b4c                OSMemQuery
                0x00813c48                OS_MemInit
 .text          0x00813d18     0x1334 ../server1_bsp/\libucosii_bsp.a(os_q.o)
                0x00813d18                OSQAccept
                0x00813e6c                OSQCreate
                0x00814080                OSQDel
                0x00814380                OSQFlush
                0x00814448                OSQPend
                0x00814768                OSQPendAbort
                0x008148e4                OSQPost
                0x00814a64                OSQPostFront
                0x00814bec                OSQPostOpt
                0x00814e20                OSQQuery
                0x00814fa0                OS_QInit
 .text          0x0081504c      0xbc8 ../server1_bsp/\libucosii_bsp.a(os_sem.o)
                0x0081504c                OSSemAccept
                0x0081510c                OSSemCreate
                0x00815220                OSSemDel
                0x008154c0                OSSemPend
                0x0081573c                OSSemPendAbort
                0x008158b8                OSSemPost
                0x008159e0                OSSemQuery
                0x00815b10                OSSemSet
 .text          0x00815c14     0x1a40 ../server1_bsp/\libucosii_bsp.a(os_task.o)
                0x00815c14                OSTaskChangePrio
                0x00816188                OSTaskCreate
                0x0081635c                OSTaskCreateExt
                0x0081655c                OSTaskDel
                0x00816968                OSTaskDelReq
                0x00816ad8                OSTaskNameGet
                0x00816c90                OSTaskNameSet
                0x00816e54                OSTaskResume
                0x0081706c                OSTaskStkChk
                0x00817268                OSTaskSuspend
                0x00817494                OSTaskQuery
                0x008175d8                OS_TaskStkClr
 .text          0x00817654      0x670 ../server1_bsp/\libucosii_bsp.a(os_time.o)
                0x00817654                OSTimeDly
                0x008177a0                OSTimeDlyHMSM
                0x008179ec                OSTimeDlyResume
                0x00817bfc                OSTimeGet
                0x00817c60                OSTimeSet
 .text          0x00817cc4      0x118 ../server1_bsp/\libucosii_bsp.a(alt_sys_init.o)
                0x00817cc4                alt_irq_init
                0x00817cf8                alt_sys_init
 .text          0x00817ddc      0x8c8 ../server1_bsp/\libucosii_bsp.a(altera_avalon_cfi_flash.o)
                0x00817ddc                alt_flash_cfi_init
                0x00817eb0                alt_flash_cfi_write
                0x00818170                alt_flash_cfi_get_info
                0x00818200                alt_flash_cfi_read
                0x00818268                alt_write_value_to_flash
                0x008183cc                alt_flash_program_block
 .text          0x008186a4     0x14a8 ../server1_bsp/\libucosii_bsp.a(altera_avalon_cfi_flash_table.o)
                0x008186a4                alt_read_query_entry_8bit
                0x008186e4                alt_read_query_entry_16bit
                0x00818728                alt_read_query_entry_32bit
                0x00818770                alt_write_flash_command_8bit_device_8bit_mode
                0x008187ac                alt_write_flash_command_16bit_device_8bit_mode
                0x00818828                alt_write_flash_command_32bit_device_8bit_mode
                0x00818870                alt_write_flash_command_16bit_device_16bit_mode
                0x008188b4                alt_write_flash_command_32bit_device_16bit_mode
                0x008188fc                alt_write_flash_command_32bit_device_32bit_mode
                0x00818944                alt_write_native_8bit
                0x00818978                alt_write_native_16bit
                0x008189ac                alt_write_native_32bit
                0x008189dc                alt_set_flash_width_func
                0x00818bbc                alt_set_flash_algorithm_func
                0x00818ce4                alt_read_cfi_table
                0x008192c4                alt_read_cfi_width
                0x00819a70                alt_check_primary_table
 .text          0x00819b4c      0x9e4 ../server1_bsp/\libucosii_bsp.a(altera_avalon_epcs_flash_controller.o)
                0x00819b4c                alt_epcs_flash_init
                0x00819f68                alt_epcs_flash_write
                0x0081a1e8                alt_epcs_flash_get_info
                0x0081a278                alt_epcs_flash_erase_block
                0x0081a37c                alt_epcs_flash_write_block
                0x0081a498                alt_epcs_flash_read
 .text          0x0081a530      0x148 ../server1_bsp/\libucosii_bsp.a(altera_avalon_jtag_uart_fd.o)
                0x0081a530                altera_avalon_jtag_uart_read_fd
                0x0081a588                altera_avalon_jtag_uart_write_fd
                0x0081a5e0                altera_avalon_jtag_uart_close_fd
                0x0081a628                altera_avalon_jtag_uart_ioctl_fd
 .text          0x0081a678      0x584 ../server1_bsp/\libucosii_bsp.a(altera_avalon_jtag_uart_init.o)
                0x0081a678                altera_avalon_jtag_uart_init
                0x0081ab88                altera_avalon_jtag_uart_close
 .text          0x0081abfc       0xf4 ../server1_bsp/\libucosii_bsp.a(altera_avalon_jtag_uart_ioctl.o)
                0x0081abfc                altera_avalon_jtag_uart_ioctl
 .text          0x0081acf0      0x2c0 ../server1_bsp/\libucosii_bsp.a(altera_avalon_jtag_uart_read.o)
                0x0081acf0                altera_avalon_jtag_uart_read
 .text          0x0081afb0      0x2dc ../server1_bsp/\libucosii_bsp.a(altera_avalon_jtag_uart_write.o)
                0x0081afb0                altera_avalon_jtag_uart_write
 .text          0x0081b28c      0xf3c ../server1_bsp/\libucosii_bsp.a(altera_avalon_lcd_16207.o)
                0x0081ba60                altera_avalon_lcd_16207_write
                0x0081c064                altera_avalon_lcd_16207_init
 .text          0x0081c1c8       0x58 ../server1_bsp/\libucosii_bsp.a(altera_avalon_lcd_16207_fd.o)
                0x0081c1c8                altera_avalon_lcd_16207_write_fd
 .text          0x0081c220      0x100 ../server1_bsp/\libucosii_bsp.a(altera_avalon_timer_sc.o)
                0x0081c290                alt_avalon_timer_sc_init
 .text          0x0081c320       0xf8 ../server1_bsp/\libucosii_bsp.a(altera_avalon_uart_fd.o)
                0x0081c320                altera_avalon_uart_read_fd
                0x0081c378                altera_avalon_uart_write_fd
                0x0081c3d0                altera_avalon_uart_close_fd
 .text          0x0081c418      0x57c ../server1_bsp/\libucosii_bsp.a(altera_avalon_uart_init.o)
                0x0081c418                altera_avalon_uart_init
                0x0081c934                altera_avalon_uart_close
 .text          0x0081c994      0x310 ../server1_bsp/\libucosii_bsp.a(altera_avalon_uart_read.o)
                0x0081c994                altera_avalon_uart_read
 .text          0x0081cca4      0x2a8 ../server1_bsp/\libucosii_bsp.a(altera_avalon_uart_write.o)
                0x0081cca4                altera_avalon_uart_write
 .text          0x0081cf4c      0x6d4 ../server1_bsp/\libucosii_bsp.a(epcs_commands.o)
                0x0081cf4c                epcs_read_status_register
                0x0081cfac                epcs_sector_erase
                0x0081d114                epcs_read_buffer
                0x0081d260                epcs_write_enable
                0x0081d2b0                epcs_write_status_register
                0x0081d314                epcs_write_buffer
                0x0081d484                epcs_read_electronic_signature
                0x0081d4f0                epcs_read_device_id
                0x0081d570                epcs_enter_4_bytes_mode
                0x0081d5c8                epcs_exit_4_bytes_mode
 .text          0x0081d620       0x54 ../server1_bsp/\libucosii_bsp.a(alt_iniche_close.o)
                0x0081d620                close
 .text          0x0081d674      0x144 ../server1_bsp/\libucosii_bsp.a(alt_iniche_dev.o)
                0x0081d674                iniche_devices_init
 .text          0x0081d7b8       0x78 ../server1_bsp/\libucosii_bsp.a(alt_iniche_read.o)
                0x0081d7b8                read
 .text          0x0081d830       0x70 ../server1_bsp/\libucosii_bsp.a(alt_iniche_write.o)
                0x0081d830                write
 .text          0x0081d8a0      0xedc ../server1_bsp/\libucosii_bsp.a(ipnet.o)
                0x0081d8a0                Netinit
                0x0081deec                fixup_subnet_mask
                0x0081e04c                netclose
                0x0081e134                pktdemux
                0x0081e508                c_older
                0x0081e5d8                ip2mac
 .text          0x0081e77c      0x4b0 ../server1_bsp/\libucosii_bsp.a(ipstart.o)
                0x0081e77c                ip_startup
                0x0081ea60                exit_hook
                0x0081eacc                ip_exit
                0x0081eb9c                if_netnumber
 .text          0x0081ec2c     0x10e8 ../server1_bsp/\libucosii_bsp.a(igmp_cmn.o)
                0x0081ec2c                igmp_init
                0x0081ed1c                igmp_input
                0x0081ee14                igmp_fasttimo
                0x0081f048                igmp_send
                0x0081f2f0                igmp_joingroup
                0x0081f55c                igmp_leavegroup
                0x0081f5d8                igmp_validate
                0x0081f934                igmp_print_stats
 .text          0x0081fd14      0xbc8 ../server1_bsp/\libucosii_bsp.a(bsdsock.o)
                0x0081fd14                bsd_accept
                0x0081fe4c                bsd_getpeername
                0x0081ff78                bsd_getsockname
                0x008200a4                bsd_i_sockoptlen
                0x0082025c                bsd_getsockopt
                0x0082037c                bsd_ioctl
                0x00820480                bsd_inet_ntoa
                0x008204b0                bsd_recvfrom
                0x00820610                bsd_select
                0x008207f0                bsd_setsockopt
 .text          0x008208dc      0x118 ../server1_bsp/\libucosii_bsp.a(cksum.o)
                0x008208dc                ccksum
                0x0082098c                cksum
 .text          0x008209f4      0xa9c ../server1_bsp/\libucosii_bsp.a(in_utils.o)
                0x008209f4                do_trap
                0x00820a20                nextarg
                0x00820a9c                hexdump
                0x00820be4                print_ipad
                0x00820c58                print_uptime
                0x00820d84                panic
                0x00820dc8                print_eth
                0x00820f2c                uslash
                0x00820fac                ns_printf
                0x00821130                std_out
                0x00821174                con_page
                0x00821264                parse_args
 .text          0x00821490      0x1c8 ../server1_bsp/\libucosii_bsp.a(netmain.o)
                0x00821490                netmain
                0x00821584                tk_netmain
                0x0082160c                tk_nettick
 .text          0x00821658      0x810 ../server1_bsp/\libucosii_bsp.a(parseip.o)
                0x00821658                parse_ipad
                0x00821974                inet_addr
                0x008219dc                hextoa
                0x00821a4c                inet_pton
                0x00821af8                inet_ntop
                0x00821b84                print46_addr
                0x00821be4                inet46_addr
                0x00821ca8                inet_setport
                0x00821d1c                convert_ip
 .text          0x00821e68      0x5e8 ../server1_bsp/\libucosii_bsp.a(tk_crnos.o)
                0x00821e68                TK_OSTimeDly
                0x00821e94                TK_OSTaskResume
                0x00821f04                tcp_sleep
                0x008220a4                tcp_wakeup
                0x008221a8                TK_OSTaskQuery
                0x0082221c                tk_yield
                0x00822248                tk_stats
 .text          0x00822450     0x3294 ../server1_bsp/\libucosii_bsp.a(dhcpclnt.o)
                0x00822450                dhc_get_srv_ipaddr
                0x008224e0                dhc_init
                0x0082259c                dhc_set_callback
                0x008225e0                dhc_upcall
                0x00822e10                dhc_buildheader
                0x0082302c                dhc_discover
                0x00823544                dhc_rx_offer
                0x00823648                dhc_request
                0x00824184                dhc_setip
                0x00824404                dhc_resetip
                0x008244e8                dhc_decline
                0x008246cc                dhc_extract_opts
                0x00824988                dhc_second
                0x00825278                dhc_halt
                0x00825300                dhc_reclaim
                0x008254d0                dhc_state_init
                0x00825530                dhc_alldone
                0x008255c0                dhc_ifacedone
                0x00825634                dhc_set_state
 .text          0x008256e4       0xcc ../server1_bsp/\libucosii_bsp.a(dhcputil.o)
                0x008256e4                find_opt
 .text          0x008257b0      0x79c ../server1_bsp/\libucosii_bsp.a(pktalloc.o)
                0x008257b0                pk_init
                0x00825a40                pk_alloc
                0x00825b1c                pk_validate
                0x00825dd4                pk_free
                0x00825e80                pk_get_max_intrsafe_buf_len
                0x00825ea0                dump_buf_estats
 .text          0x00825f4c      0x288 ../server1_bsp/\libucosii_bsp.a(q.o)
                0x00825f4c                getq
                0x00826014                putq
                0x008260c4                qdel
 .text          0x008261d4      0x31c ../server1_bsp/\libucosii_bsp.a(udp_open.o)
                0x008261d4                udp_open
                0x0082640c                udp_close
 .text          0x008264f0      0x194 ../server1_bsp/\libucosii_bsp.a(asm_cksum.o)
                0x008264f0                asm_cksum
 .text          0x00826684      0x2e4 ../server1_bsp/\libucosii_bsp.a(brdutils.o)
                0x00826684                dtrap
                0x008266b4                kbhit
                0x00826760                getch
                0x008267c0                clock_init
                0x008267fc                clock_c
                0x00826818                cticks_hook
                0x008268c8                irq_Mask
                0x00826924                irq_Unmask
 .text          0x00826968      0x488 ../server1_bsp/\libucosii_bsp.a(osportco.o)
                0x00826968                LOCK_NET_RESOURCE
                0x00826a28                UNLOCK_NET_RESOURCE
                0x00826ab0                TK_NEWTASK
                0x00826cc4                wait_app_sem
                0x00826d78                post_app_sem
 .text          0x00826df0      0x568 ../server1_bsp/\libucosii_bsp.a(targnios.o)
                0x00826df0                alt_iniche_init
                0x0082700c                pre_task_setup
                0x00827080                post_task_setup
                0x008270a0                prep_armintcp
                0x008270d8                calloc2
                0x0082710c                npalloc
                0x00827200                npfree
                0x008272b8                ncpalloc
                0x0082730c                ncpfree
 .text          0x00827358     0x19b8 ../server1_bsp/\libucosii_bsp.a(nptcp.o)
                0x00827358                pffindtype
                0x008273f8                pffindproto
                0x008274c8                m_getnbuf
                0x00827670                m_free
                0x008277a4                m_freem
                0x008277e8                m_copy
                0x00827b0c                m_adj
                0x00827cdc                mbuf_len
                0x00827d34                dtom
                0x00827ddc                remque
                0x00827e4c                insque
                0x00827ec8                nptcp_init
                0x00827fec                tcp_rcv
                0x008281d8                ip_output
                0x008287d0                in_broadcast
                0x00828810                np_stripoptions
                0x008288f8                so_icmpdu
                0x00828c50                tcp_tick
 .text          0x00828d10      0xa2c ../server1_bsp/\libucosii_bsp.a(rawsock.o)
                0x00828d10                rawip_lookup
                0x00828d80                rawip_soinput
                0x00828f54                rawip_usrreq
 .text          0x0082973c     0x17fc ../server1_bsp/\libucosii_bsp.a(sockcall.o)
                0x0082973c                DOMAIN_CHECK
                0x00829788                t_socket
                0x00829818                t_bind
                0x00829994                t_listen
                0x00829a78                t_accept
                0x00829d10                t_connect
                0x00829fb8                t_getpeername
                0x00829ffc                t_getsockname
                0x0082a23c                t_setsockopt
                0x0082a418                t_getsockopt
                0x0082a5bc                t_recv
                0x0082a6ac                t_recvfrom
                0x0082a7fc                t_sendto
                0x0082aa28                t_send
                0x0082ac50                t_shutdown
                0x0082ad34                t_socketclose
                0x0082ae9c                t_errno
 .text          0x0082af38     0x23ec ../server1_bsp/\libucosii_bsp.a(socket.o)
                0x0082af38                socreate
                0x0082b104                sobind
                0x0082b160                solisten
                0x0082b250                sofree
                0x0082b380                soclose
                0x0082b6ec                soabort
                0x0082b73c                soaccept
                0x0082b7d8                soconnect
                0x0082b8ac                sodisconnect
                0x0082b94c                sosend
                0x0082bf54                soreceive
                0x0082c738                soshutdown
                0x0082c7e0                sorflush
                0x0082c8e0                sosetopt
                0x0082cda0                sogetopt
                0x0082d2e0                sohasoutofband
 .text          0x0082d324     0x1318 ../server1_bsp/\libucosii_bsp.a(socket2.o)
                0x0082d324                soisconnecting
                0x0082d390                soisconnected
                0x0082d48c                soisdisconnecting
                0x0082d518                soisdisconnected
                0x0082d5d4                sonewconn
                0x0082d7f0                soqinsque
                0x0082d89c                soqremque
                0x0082d9bc                socantsendmore
                0x0082da0c                socantrcvmore
                0x0082da5c                sbselqueue
                0x0082da94                sbwait
                0x0082dafc                sbwakeup
                0x0082db98                soreserve
                0x0082dc18                sbreserve
                0x0082dc78                sbrelease
                0x0082dcc0                sbappend
                0x0082dd68                sbappendrecord
                0x0082de48                sbappendaddr
                0x0082e050                sbcompress
                0x0082e238                sbflush
                0x0082e2c8                sbdrop
                0x0082e498                sbdropend
                0x0082e5a8                sbdroprecord
 .text          0x0082e63c      0x914 ../server1_bsp/\libucosii_bsp.a(soselect.o)
                0x0082e63c                t_select
                0x0082e85c                sock_selscan
                0x0082e9b4                sock_select
                0x0082ebc8                in_pcbnotify
                0x0082ec94                tcp_notify
                0x0082ecfc                ifd_clr
                0x0082edec                ifd_set
                0x0082ee60                ifd_isset
                0x0082eee0                ifd_get
 .text          0x0082ef50     0x3020 ../server1_bsp/\libucosii_bsp.a(tcp_in.o)
                0x0082ef50                tcp_reass
                0x0082f358                tcp_input
                0x008318ac                tcp_dooptions
                0x00831a3c                tcp_pulloutofband
                0x00831b68                tcp_xmit_timer
                0x00831e0c                ip4_tcpmss
                0x00831e54                tcp_mss
 .text          0x00831f70     0x1360 ../server1_bsp/\libucosii_bsp.a(tcp_out.o)
                0x00831f70                tcp_output
                0x008330ec                tcp_setpersist
 .text          0x008332d0      0x9e8 ../server1_bsp/\libucosii_bsp.a(tcp_subr.o)
                0x008332d0                tcp_init
                0x00833328                tcp_template
                0x00833440                tcp_respond
                0x008338c8                tcp_newtcpcb
                0x008339e0                tcp_drop
                0x00833a8c                tcp_close
                0x00833b74                tcp_quench
                0x00833bc0                tcp_putseq
                0x00833c40                tcp_getseq
 .text          0x00833cb8      0x798 ../server1_bsp/\libucosii_bsp.a(tcp_timr.o)
                0x00833cb8                tcp_slowtimo
                0x00833f58                tcp_canceltimers
                0x00833fb4                tcp_timers
 .text          0x00834450      0x9ec ../server1_bsp/\libucosii_bsp.a(tcp_usr.o)
                0x00834450                tcp_usrreq
                0x00834b54                tcp_attach
                0x00834c88                tcp_disconnect
                0x00834d5c                tcp_usrclosed
 .text          0x00834e3c       0x4c ../server1_bsp/\libucosii_bsp.a(tcpport.o)
                0x00834e3c                tcpinit
 .text          0x00834e88      0xd20 ../server1_bsp/\libucosii_bsp.a(udpsock.o)
                0x00834e88                udp_lookup
                0x00834ef8                udp_soinput
                0x008350b0                udp_usrreq
                0x00835334                udp4_sockbind
                0x00835670                udp4_socksend
                0x00835a4c                udp4_sockaddr
 .text          0x00835ba8      0x154 ../server1_bsp/\libucosii_bsp.a(alt_alarm_start.o)
                0x00835ba8                alt_alarm_start
 .text          0x00835cfc      0x14c ../server1_bsp/\libucosii_bsp.a(alt_busy_sleep.o)
                0x00835cfc                alt_busy_sleep
 .text          0x00835e48      0x15c ../server1_bsp/\libucosii_bsp.a(alt_close.o)
                0x00835e48                alt_close
 .text          0x00835fa4       0x78 ../server1_bsp/\libucosii_bsp.a(alt_dcache_flush.o)
                0x00835fa4                alt_dcache_flush
 .text          0x0083601c       0x2c ../server1_bsp/\libucosii_bsp.a(alt_dev.o)
 .text          0x00836048      0x114 ../server1_bsp/\libucosii_bsp.a(alt_dev_llist_insert.o)
                0x00836048                alt_dev_llist_insert
 .text          0x0083615c       0x64 ../server1_bsp/\libucosii_bsp.a(alt_do_ctors.o)
                0x0083615c                _do_ctors
 .text          0x008361c0       0x64 ../server1_bsp/\libucosii_bsp.a(alt_do_dtors.o)
                0x008361c0                _do_dtors
 .text          0x00836224        0x0 ../server1_bsp/\libucosii_bsp.a(alt_errno.o)
 .text          0x00836224       0x94 ../server1_bsp/\libucosii_bsp.a(alt_find_dev.o)
                0x00836224                alt_find_dev
 .text          0x008362b8      0x1d4 ../server1_bsp/\libucosii_bsp.a(alt_iic.o)
                0x008362b8                alt_ic_isr_register
                0x00836308                alt_ic_irq_enable
                0x008363a4                alt_ic_irq_disable
                0x00836444                alt_ic_irq_enabled
 .text          0x0083648c       0xf8 ../server1_bsp/\libucosii_bsp.a(alt_iic_isr_register.o)
                0x0083648c                alt_iic_isr_register
 .text          0x00836584      0x13c ../server1_bsp/\libucosii_bsp.a(alt_io_redirect.o)
                0x00836648                alt_io_redirect
 .text          0x008366c0        0x0 ../server1_bsp/\libucosii_bsp.a(alt_irq_entry.o)
 .text          0x008366c0        0x0 ../server1_bsp/\libucosii_bsp.a(alt_irq_handler.o)
 .text          0x008366c0      0x2c4 ../server1_bsp/\libucosii_bsp.a(alt_open.o)
                0x0083679c                open
 .text          0x00836984      0x180 ../server1_bsp/\libucosii_bsp.a(alt_read.o)
                0x00836984                alt_read
 .text          0x00836b04       0x60 ../server1_bsp/\libucosii_bsp.a(alt_release_fd.o)
                0x00836b04                alt_release_fd
 .text          0x00836b64       0x38 ../server1_bsp/\libucosii_bsp.a(alt_remap_cached.o)
                0x00836b64                alt_remap_cached
 .text          0x00836b9c       0x40 ../server1_bsp/\libucosii_bsp.a(alt_remap_uncached.o)
                0x00836b9c                alt_remap_uncached
 .text          0x00836bdc      0x1a8 ../server1_bsp/\libucosii_bsp.a(alt_tick.o)
                0x00836bdc                alt_alarm_stop
                0x00836c74                alt_tick
 .text          0x00836d84      0x180 ../server1_bsp/\libucosii_bsp.a(alt_write.o)
                0x00836d84                alt_write
 .text          0x00836f04       0x20 ../server1_bsp/\libucosii_bsp.a(altera_nios2_qsys_irq.o)
                0x00836f04                altera_nios2_qsys_irq_init
 .text          0x00836f24       0xd0 ../server1_bsp/\libucosii_bsp.a(os_cpu_a.o)
                0x00836f24                OSCtxSw
                0x00836f24                OSIntCtxSw
                0x00836fb0                OSStartHighRdy
                0x00836fd0                OSStartTsk
 .text          0x00836ff4      0x424 ../server1_bsp/\libucosii_bsp.a(os_cpu_c.o)
                0x00836ff4                OSTaskStkInit
                0x00837304                OSTaskCreateHook
                0x00837324                OSTaskDelHook
                0x00837344                OSTaskSwHook
                0x00837360                OSTaskStatHook
                0x0083737c                OSTimeTickHook
                0x008373a4                OSInitHookBegin
                0x008373c0                OSInitHookEnd
                0x008373dc                OSTaskIdleHook
                0x008373f8                OSTCBInitHook
 .text          0x00837418      0x460 ../server1_bsp/\libucosii_bsp.a(altera_avalon_cfi_flash_amd.o)
                0x00837418                alt_program_amd
                0x00837480                alt_erase_block_amd
 .text          0x00837878      0x460 ../server1_bsp/\libucosii_bsp.a(altera_avalon_cfi_flash_intel.o)
                0x00837878                alt_program_intel
                0x008378fc                alt_erase_block_intel
 .text          0x00837cd8      0x238 ../server1_bsp/\libucosii_bsp.a(altera_avalon_spi.o)
                0x00837cd8                alt_avalon_spi_command
 .text          0x00837f10      0x444 ../server1_bsp/\libucosii_bsp.a(allports.o)
                0x00837f10                netmain_init
                0x0083800c                icmp_port_du
                0x00838094                station_state
                0x008381f8                sysuptime
                0x0083828c                packet_check
                0x008382d8                mcastlist
                0x008382fc                prep_modules
 .text          0x00838354      0x580 ../server1_bsp/\libucosii_bsp.a(timeouts.o)
                0x00838354                inet_timer
                0x00838654                in_timerset
                0x0083882c                in_timerkill
 .text          0x008388d4       0xa4 ../server1_bsp/\libucosii_bsp.a(tk_misc.o)
                0x008388d4                create_apptasks
                0x008388f8                task_stats
 .text          0x00838978       0xb0 ../server1_bsp/\libucosii_bsp.a(alt_iniche_fcntl.o)
                0x00838978                fcntl
 .text          0x00838a28     0x15b0 ../server1_bsp/\libucosii_bsp.a(et_arp.o)
                0x00838a28                etainit
                0x00838a7c                et_send
                0x00838bf8                arp_free_pending
                0x00838c80                arp_send_pending
                0x00838cf4                send_arp
                0x0083918c                find_oldest_arp
                0x00839388                make_arp_entry
                0x0083949c                arpReply
                0x00839730                arprcv
                0x00839990                send_via_arp
                0x00839b60                cb_arpent_tmo
                0x00839d0c                grat_arp
 .text          0x00839fd8      0x298 ../server1_bsp/\libucosii_bsp.a(iface.o)
                0x00839fd8                if_getbynum
                0x0083a05c                isbcast
                0x0083a13c                reg_type
                0x0083a1d8                if_killsocks
 .text          0x0083a270     0x22a4 ../server1_bsp/\libucosii_bsp.a(ip.o)
                0x0083a270                ip_init
                0x0083a36c                ip_bldhead
                0x0083a510                ip_write_internal
                0x0083ac90                ip_write
                0x0083aed8                ip_write2
                0x0083b288                ip_raw_write
                0x0083b360                ip_fragment_lc
                0x0083b7e8                ip_fragment
                0x0083be0c                ip_mymach
                0x0083beb8                ip_dump
                0x0083c170                iproute
                0x0083c3dc                ip_copypkt
 .text          0x0083c514     0x1e08 ../server1_bsp/\libucosii_bsp.a(ip_reasm.o)
                0x0083c514                ip_reasm_match_frag_with_ire
                0x0083c5e4                ip_reasm_determine_type_of_frag
                0x0083c6d0                ip_reasm_check_mem_useage
                0x0083c768                ip_reasm_incr_mem_useage
                0x0083c810                ip_reasm_decr_mem_useage
                0x0083c8b0                ip_reasm_process_first_fragment
                0x0083cb90                ip_reassm
                0x0083cc30                ip_reasm_compute_overlap
                0x0083d1c0                ip_reasm_process_subsequent_fragments
                0x0083d754                ip_reasm_find_ire
                0x0083d7b8                ip_reasm_copy_queued_fragments_into_reassy_buffer
                0x0083db14                ip_reasm_process_timer_tick
                0x0083dc34                ip_reasm_delete_ire
                0x0083ddfc                ip_reasm_mark_compact_rfq
                0x0083df44                ipr_stats
                0x0083e2c8                ip_reasm_send_icmp_timex
 .text          0x0083e31c      0xe3c ../server1_bsp/\libucosii_bsp.a(ipdemux.o)
                0x0083e31c                ip_rcv
                0x0083e71c                ip_rcv_phase2
                0x0083ed28                ip_demux
 .text          0x0083f158      0x2f0 ../server1_bsp/\libucosii_bsp.a(ipmc.o)
                0x0083f158                in_addmulti
                0x0083f2c0                in_delmulti
                0x0083f3d8                lookup_mcast
 .text          0x0083f448       0xe4 ../server1_bsp/\libucosii_bsp.a(ipport.o)
                0x0083f448                prep_ifaces
                0x0083f4dc                netexit
                0x0083f504                evtmap_setup
 .text          0x0083f52c      0x550 ../server1_bsp/\libucosii_bsp.a(ipraw.o)
                0x0083f52c                ip_raw_open
                0x0083f61c                ip_raw_close
                0x0083f6dc                ip_raw_input
                0x0083f914                ip_raw_alloc
                0x0083f9e0                ip_raw_free
                0x0083fa20                ip_raw_maxalloc
 .text          0x0083fa7c      0x6f0 ../server1_bsp/\libucosii_bsp.a(iproute.o)
                0x0083fa7c                rt_lookup
                0x0083fc00                add_route
                0x00840028                del_route
 .text          0x0084016c      0xe3c ../server1_bsp/\libucosii_bsp.a(udp.o)
                0x0084016c                udpdemux
                0x008409c4                udp_send
                0x00840c7c                udpswap
                0x00840dac                udp_socket
                0x00840e7c                udp_alloc
                0x00840f3c                udp_maxalloc
                0x00840f68                udp_free
 .text          0x00840fa8      0x2e8 ../server1_bsp/\libucosii_bsp.a(igmp.o)
                0x00840fa8                igmpv1_input
 .text          0x00841290      0x7c0 ../server1_bsp/\libucosii_bsp.a(igmp2.o)
                0x00841290                igmpv2_input
                0x008413f0                igmpv2_process_report
                0x0084153c                igmpv2_process_query
                0x00841788                igmpv2_chk_set_timer
                0x008418e0                igmpv2_chk4_rtr_alert_opt
 .text          0x00841a50      0x8fc ../server1_bsp/\libucosii_bsp.a(ipopt.o)
                0x00841a50                IPADDR_TO_NETP
                0x00841b98                ip_setmoptions
                0x00842188                ip_getmoptions
                0x008422c8                ip_freemoptions
 .text          0x0084234c      0x6e8 ../server1_bsp/\libucosii_bsp.a(u_mctest.o)
                0x0084234c                u_mctest_init
                0x0084237c                u_mctest_run
 .text          0x00842a34      0x3d0 ../server1_bsp/\libucosii_bsp.a(dhcsetup.o)
                0x00842a34                dhc_setup
                0x00842d00                dhc_main_ipset
 .text          0x00842e04      0x40c ../server1_bsp/\libucosii_bsp.a(memdev.o)
                0x00842e04                init_memdev
                0x00842e7c                md_fopen
                0x00842ea4                md_fclose
                0x00842ec4                md_fread
                0x00843044                md_fwrite
                0x008430c4                md_fseek
                0x008430f0                md_ftell
                0x00843114                md_fgetc
                0x008431ec                md_unlink
 .text          0x00843210      0x1cc ../server1_bsp/\libucosii_bsp.a(tcpcksum.o)
                0x00843210                tcp_cksum
 .text          0x008433dc      0x900 ../server1_bsp/\libucosii_bsp.a(in_pcb.o)
                0x008433dc                in_pcballoc
                0x00843470                in_pcbdetach
                0x008434c4                in_pcbbind
                0x00843718                in_pcbconnect
                0x00843928                in_pcbdisconnect
                0x00843988                in_setsockaddr
                0x00843a04                in_setpeeraddr
                0x00843a80                in_pcblookup
 .text          0x00843cdc     0x1a74 ../server1_bsp/\libucosii_bsp.a(vfsfiles.o)
                0x00843cdc                set_vfopen_error
                0x00843d04                get_vfopen_error
                0x00843d24                vf_alloc_and_link_vop
                0x00843da0                vf_alloc_buffer
                0x00843e78                vf_free_buffer
                0x00843ec8                vfopen_locked
                0x00844230                vfopen
                0x00844280                vfclose_locked
                0x00844428                vfclose
                0x00844468                vfflush
                0x008444b0                vfgets
                0x00844594                vfeof
                0x008445ec                vunlink_flag_open_files
                0x00844648                vunlink
                0x00844868                vfread
                0x00844a14                vfwrite_locked
                0x00844dfc                vfwrite
                0x00844e5c                vfseek
                0x00844fd8                vftell
                0x0084510c                vgetc_locked
                0x0084522c                vgetc
                0x00845274                vfslookup_locked
                0x008453ac                vfslookup
                0x008453f4                strippath
                0x008455dc                isvfile_locked
                0x00845640                isvfile
                0x00845688                vferror
                0x008456f4                vclearerr
 .text          0x00845750       0x24 ../server1_bsp/\libucosii_bsp.a(vfsport.o)
                0x00845750                prep_vfs
 .text          0x00845774        0x0 ../server1_bsp/\libucosii_bsp.a(alt_exception_entry.o)
 .text          0x00845774      0x1b4 ../server1_bsp/\libucosii_bsp.a(alt_fcntl.o)
                0x00845774                alt_fcntl
 .text          0x00845928      0x120 ../server1_bsp/\libucosii_bsp.a(alt_find_file.o)
                0x00845928                alt_find_file
 .text          0x00845a48       0xf4 ../server1_bsp/\libucosii_bsp.a(alt_get_fd.o)
                0x00845a48                alt_get_fd
 .text          0x00845b3c     0x130c ../server1_bsp/\libucosii_bsp.a(icmp.o)
                0x00845b3c                icmprcv
                0x00846770                icmp_destun
                0x00846ac0                icmp_timex
                0x00846df4                icmp_du
 .text          0x00846e48       0x14 c:/altera/13.0sp1/nios2eds/bin/gnu/h-i686-mingw32/bin/../lib/gcc/nios2-elf/4.1.2/../../../../nios2-elf/lib\libc.a(lib_a-atexit.o)
                0x00846e48                atexit
 .text          0x00846e5c       0x18 c:/altera/13.0sp1/nios2eds/bin/gnu/h-i686-mingw32/bin/../lib/gcc/nios2-elf/4.1.2/../../../../nios2-elf/lib\libc.a(lib_a-atoi.o)
                0x00846e5c                _atoi_r
                0x00846e68                atoi
 .text          0x00846e74       0x1c c:/altera/13.0sp1/nios2eds/bin/gnu/h-i686-mingw32/bin/../lib/gcc/nios2-elf/4.1.2/../../../../nios2-elf/lib\libc.a(lib_a-calloc.o)
                0x00846e74                calloc
 .text          0x00846e90       0x28 c:/altera/13.0sp1/nios2eds/bin/gnu/h-i686-mingw32/bin/../lib/gcc/nios2-elf/4.1.2/../../../../nios2-elf/lib\libc.a(lib_a-malloc.o)
                0x00846e90                free
                0x00846ea4                malloc
 .text          0x00846eb8       0x74 c:/altera/13.0sp1/nios2eds/bin/gnu/h-i686-mingw32/bin/../lib/gcc/nios2-elf/4.1.2/../../../../nios2-elf/lib\libc.a(lib_a-memcmp.o)
                0x00846eb8                memcmp
 .text          0x00846f2c       0x8c c:/altera/13.0sp1/nios2eds/bin/gnu/h-i686-mingw32/bin/../lib/gcc/nios2-elf/4.1.2/../../../../nios2-elf/lib\libc.a(lib_a-strcpy.o)
                0x00846f2c                strcpy
 .text          0x00846fb8       0xf0 c:/altera/13.0sp1/nios2eds/bin/gnu/h-i686-mingw32/bin/../lib/gcc/nios2-elf/4.1.2/../../../../nios2-elf/lib\libc.a(lib_a-strncmp.o)
                0x00846fb8                strncmp
 .text          0x008470a8       0xbc c:/altera/13.0sp1/nios2eds/bin/gnu/h-i686-mingw32/bin/../lib/gcc/nios2-elf/4.1.2/../../../../nios2-elf/lib\libc.a(lib_a-strncpy.o)
                0x008470a8                strncpy
 .text          0x00847164      0x268 c:/altera/13.0sp1/nios2eds/bin/gnu/h-i686-mingw32/bin/../lib/gcc/nios2-elf/4.1.2/../../../../nios2-elf/lib\libc.a(lib_a-strtol.o)
                0x00847164                _strtol_r
                0x008473a8                strtol
 .text          0x008473cc       0x34 c:/altera/13.0sp1/nios2eds/bin/gnu/h-i686-mingw32/bin/../lib/gcc/nios2-elf/4.1.2/../../../../nios2-elf/lib\libc.a(lib_a-vprintf.o)
                0x008473cc                _vprintf_r
                0x008473e0                vprintf
 .text          0x00847400       0x74 c:/altera/13.0sp1/nios2eds/bin/gnu/h-i686-mingw32/bin/../lib/gcc/nios2-elf/4.1.2/../../../../nios2-elf/lib\libc.a(lib_a-vsprintf.o)
                0x00847400                _vsprintf_r
                0x00847450                vsprintf
 .text          0x00847474      0x134 c:/altera/13.0sp1/nios2eds/bin/gnu/h-i686-mingw32/bin/../lib/gcc/nios2-elf/4.1.2/../../../../nios2-elf/lib\libc.a(lib_a-__atexit.o)
                0x00847474                __register_exitproc
 *(.gnu.warning.*)
 *(.fini)
                0x008475a8                PROVIDE (__etext, ABSOLUTE (.))
                0x008475a8                PROVIDE (_etext, ABSOLUTE (.))
                0x008475a8                PROVIDE (etext, ABSOLUTE (.))
 *(.eh_frame_hdr)
                0x008475a8                . = ALIGN (0x4)
                0x008475a8                PROVIDE (__preinit_array_start, ABSOLUTE (.))
 *(.preinit_array)
                0x008475a8                PROVIDE (__preinit_array_end, ABSOLUTE (.))
                0x008475a8                PROVIDE (__init_array_start, ABSOLUTE (.))
 *(.init_array)
                0x008475a8                PROVIDE (__init_array_end, ABSOLUTE (.))
                0x008475a8                PROVIDE (__fini_array_start, ABSOLUTE (.))
 *(.fini_array)
                0x008475a8                PROVIDE (__fini_array_end, ABSOLUTE (.))
 *(.eh_frame)
 *(.gcc_except_table)
 *(.dynamic)
                0x008475a8                PROVIDE (__CTOR_LIST__, ABSOLUTE (.))
 *(.ctors)
 *(SORT(.ctors.*))
 .ctors.65535   0x008475a8        0x4 c:/altera/13.0sp1/nios2eds/bin/gnu/h-i686-mingw32/bin/../lib/gcc/nios2-elf/4.1.2/../../../../nios2-elf/lib\libc.a(lib_a-__call_atexit.o)
                0x008475ac                PROVIDE (__CTOR_END__, ABSOLUTE (.))
                0x008475ac                PROVIDE (__DTOR_LIST__, ABSOLUTE (.))
 *(.dtors)
 *(SORT(.dtors.*))
                0x008475ac                PROVIDE (__DTOR_END__, ABSOLUTE (.))
 *(.jcr)
                0x008475ac                . = ALIGN (0x4)

.rodata         0x008475ac     0x41c8
                0x008475ac                PROVIDE (__ram_rodata_start, ABSOLUTE (.))
                0x008475ac                . = ALIGN (0x4)
 *(.rodata .rodata.* .gnu.linkonce.r.*)
 .rodata        0x008475ac       0x60 obj/default/LCD.o
 .rodata        0x0084760c       0xa8 obj/default/SSS_DE2_115.o
 .rodata        0x008476b4      0xba4 obj/default/alt_error_handler.o
 .rodata        0x00848258       0x64 obj/default/dm9000a.o
 .rodata        0x008482bc       0xb8 obj/default/iniche_init.o
 .rodata        0x00848374      0x234 obj/default/network_utilities.o
 .rodata        0x008485a8      0x2d4 obj/default/simple_socket_server.o
 .rodata        0x0084887c       0x14 c:/altera/13.0sp1/nios2eds/bin/gnu/h-i686-mingw32/bin/../lib/gcc/nios2-elf/4.1.2\libgcc.a(_thenan_df.o)
                0x0084887c                __thenan_df
 .rodata        0x00848890      0x100 c:/altera/13.0sp1/nios2eds/bin/gnu/h-i686-mingw32/bin/../lib/gcc/nios2-elf/4.1.2\libgcc.a(_clz.o)
                0x00848890                __clz_tab
 .rodata        0x00848990      0x281 c:/altera/13.0sp1/nios2eds/bin/gnu/h-i686-mingw32/bin/../lib/gcc/nios2-elf/4.1.2/../../../../nios2-elf/lib\libc.a(lib_a-ctype_.o)
                0x00848990                _ctype_
 *fill*         0x00848c11        0x3 00
 .rodata.str1.4
                0x00848c14        0x2 c:/altera/13.0sp1/nios2eds/bin/gnu/h-i686-mingw32/bin/../lib/gcc/nios2-elf/4.1.2/../../../../nios2-elf/lib\libc.a(lib_a-impure.o)
                                  0x4 (size before relaxing)
 *fill*         0x00848c16        0x2 00
 .rodata.str1.4
                0x00848c18        0x3 c:/altera/13.0sp1/nios2eds/bin/gnu/h-i686-mingw32/bin/../lib/gcc/nios2-elf/4.1.2/../../../../nios2-elf/lib\libc.a(lib_a-perror.o)
                                  0x4 (size before relaxing)
 *fill*         0x00848c1b        0x1 00
 .rodata.str1.4
                0x00848c1c        0x2 c:/altera/13.0sp1/nios2eds/bin/gnu/h-i686-mingw32/bin/../lib/gcc/nios2-elf/4.1.2/../../../../nios2-elf/lib\libc.a(lib_a-puts.o)
                                  0x4 (size before relaxing)
 *fill*         0x00848c1e        0x2 00
 .rodata.str1.4
                0x00848c20      0x7a2 c:/altera/13.0sp1/nios2eds/bin/gnu/h-i686-mingw32/bin/../lib/gcc/nios2-elf/4.1.2/../../../../nios2-elf/lib\libc.a(lib_a-strerror.o)
                                0x7a8 (size before relaxing)
 *fill*         0x008493c2        0x2 00
 .rodata.str1.4
                0x008493c4       0x5e c:/altera/13.0sp1/nios2eds/bin/gnu/h-i686-mingw32/bin/../lib/gcc/nios2-elf/4.1.2/../../../../nios2-elf/lib\libc.a(lib_a-vfprintf.o)
                                 0x60 (size before relaxing)
 .rodata        0x00849422       0x20 c:/altera/13.0sp1/nios2eds/bin/gnu/h-i686-mingw32/bin/../lib/gcc/nios2-elf/4.1.2/../../../../nios2-elf/lib\libc.a(lib_a-vfprintf.o)
 *fill*         0x00849442        0x2 00
 .rodata.str1.4
                0x00849444       0x10 c:/altera/13.0sp1/nios2eds/bin/gnu/h-i686-mingw32/bin/../lib/gcc/nios2-elf/4.1.2/../../../../nios2-elf/lib\libc.a(lib_a-dtoa.o)
                                 0x14 (size before relaxing)
 .rodata.str1.4
                0x00849454       0x10 c:/altera/13.0sp1/nios2eds/bin/gnu/h-i686-mingw32/bin/../lib/gcc/nios2-elf/4.1.2/../../../../nios2-elf/lib\libc.a(lib_a-locale.o)
                                 0x18 (size before relaxing)
 .rodata        0x00849464       0x30 c:/altera/13.0sp1/nios2eds/bin/gnu/h-i686-mingw32/bin/../lib/gcc/nios2-elf/4.1.2/../../../../nios2-elf/lib\libc.a(lib_a-locale.o)
 .rodata        0x00849494      0x124 c:/altera/13.0sp1/nios2eds/bin/gnu/h-i686-mingw32/bin/../lib/gcc/nios2-elf/4.1.2/../../../../nios2-elf/lib\libc.a(lib_a-mprec.o)
                0x00849494                __mprec_tens
                0x0084955c                __mprec_bigtens
                0x00849584                __mprec_tinytens
 .rodata        0x008495b8       0x14 ../server1_bsp/\libucosii_bsp.a(alt_main.o)
 .rodata        0x008495cc      0x120 ../server1_bsp/\libucosii_bsp.a(os_core.o)
                0x008495cc                OSUnMapTbl
 .rodata        0x008496ec       0x60 ../server1_bsp/\libucosii_bsp.a(alt_sys_init.o)
 .rodata        0x0084974c       0xd8 ../server1_bsp/\libucosii_bsp.a(ipnet.o)
 .rodata        0x00849824       0xec ../server1_bsp/\libucosii_bsp.a(ipstart.o)
 .rodata        0x00849910      0x54c ../server1_bsp/\libucosii_bsp.a(igmp_cmn.o)
 .rodata        0x00849e5c       0xb8 ../server1_bsp/\libucosii_bsp.a(in_utils.o)
 .rodata        0x00849f14       0x34 ../server1_bsp/\libucosii_bsp.a(netmain.o)
 .rodata        0x00849f48       0x94 ../server1_bsp/\libucosii_bsp.a(parseip.o)
 .rodata        0x00849fdc      0x1a8 ../server1_bsp/\libucosii_bsp.a(tk_crnos.o)
 .rodata        0x0084a184        0x8 ../server1_bsp/\libucosii_bsp.a(dhcpclnt.o)
 .rodata        0x0084a18c      0x118 ../server1_bsp/\libucosii_bsp.a(pktalloc.o)
 .rodata        0x0084a2a4       0x84 ../server1_bsp/\libucosii_bsp.a(udp_open.o)
 .rodata        0x0084a328       0x2c ../server1_bsp/\libucosii_bsp.a(brdutils.o)
 .rodata        0x0084a354      0x26c ../server1_bsp/\libucosii_bsp.a(osportco.o)
 .rodata        0x0084a5c0       0xa0 ../server1_bsp/\libucosii_bsp.a(targnios.o)
 .rodata        0x0084a660       0x90 ../server1_bsp/\libucosii_bsp.a(nptcp.o)
 .rodata        0x0084a6f0        0x8 ../server1_bsp/\libucosii_bsp.a(sockcall.o)
 .rodata        0x0084a6f8       0x50 ../server1_bsp/\libucosii_bsp.a(socket.o)
 .rodata        0x0084a748       0x40 ../server1_bsp/\libucosii_bsp.a(socket2.o)
 .rodata        0x0084a788       0x20 ../server1_bsp/\libucosii_bsp.a(tcp_in.o)
 .rodata        0x0084a7a8       0x40 ../server1_bsp/\libucosii_bsp.a(tcp_out.o)
 .rodata        0x0084a7e8       0x24 ../server1_bsp/\libucosii_bsp.a(tcp_subr.o)
 .rodata        0x0084a80c       0x2c ../server1_bsp/\libucosii_bsp.a(tcp_usr.o)
 .rodata        0x0084a838        0xc ../server1_bsp/\libucosii_bsp.a(alt_dev.o)
 .rodata        0x0084a844        0x4 ../server1_bsp/\libucosii_bsp.a(os_cpu_c.o)
 .rodata        0x0084a848      0x1d4 ../server1_bsp/\libucosii_bsp.a(allports.o)
 .rodata        0x0084aa1c       0x34 ../server1_bsp/\libucosii_bsp.a(tk_misc.o)
 .rodata        0x0084aa50       0x44 ../server1_bsp/\libucosii_bsp.a(et_arp.o)
 .rodata        0x0084aa94      0x1dc ../server1_bsp/\libucosii_bsp.a(ip.o)
 .rodata        0x0084ac70      0x158 ../server1_bsp/\libucosii_bsp.a(ip_reasm.o)
 .rodata        0x0084adc8      0x120 ../server1_bsp/\libucosii_bsp.a(ipdemux.o)
 .rodata        0x0084aee8       0x34 ../server1_bsp/\libucosii_bsp.a(ipport.o)
 .rodata        0x0084af1c       0x24 ../server1_bsp/\libucosii_bsp.a(ipraw.o)
 .rodata        0x0084af40       0x38 ../server1_bsp/\libucosii_bsp.a(iproute.o)
 .rodata        0x0084af78       0xe8 ../server1_bsp/\libucosii_bsp.a(udp.o)
 .rodata        0x0084b060      0x2d0 ../server1_bsp/\libucosii_bsp.a(u_mctest.o)
 .rodata        0x0084b330       0xf8 ../server1_bsp/\libucosii_bsp.a(dhcsetup.o)
 .rodata        0x0084b428       0x34 ../server1_bsp/\libucosii_bsp.a(vfsfiles.o)
 .rodata        0x0084b45c      0x318 ../server1_bsp/\libucosii_bsp.a(icmp.o)
 *(.rodata1)
                0x0084b774                . = ALIGN (0x4)
                0x0084b774                PROVIDE (__ram_rodata_end, ABSOLUTE (.))
                0x008475ac                PROVIDE (__flash_rodata_start, LOADADDR (.rodata))

.rwdata         0x0084b774     0x213c
                0x0084b774                PROVIDE (__ram_rwdata_start, ABSOLUTE (.))
                0x0084b774                . = ALIGN (0x4)
 *(.got.plt)
 *(.got)
 *(.data1)
 *(.data .data.* .gnu.linkonce.d.*)
 .data          0x0084b774        0x0 ../server1_bsp//obj/HAL/src/crt0.o
 .data          0x0084b774        0x0 obj/default/LCD.o
 .data          0x0084b774        0x0 obj/default/SSS_DE2_115.o
 .data          0x0084b774        0x0 obj/default/alt_error_handler.o
 .data          0x0084b774        0x0 obj/default/dm9000a.o
 .data          0x0084b774       0x18 obj/default/iniche_init.o
                0x0084b774                ssstask
 .data          0x0084b78c        0x0 obj/default/led.o
 .data          0x0084b78c        0x0 obj/default/network_utilities.o
 .data          0x0084b78c        0x0 obj/default/simple_socket_server.o
 .data          0x0084b78c        0x0 obj/default/tse_my_system.o
 .data          0x0084b78c        0x0 c:/altera/13.0sp1/nios2eds/bin/gnu/h-i686-mingw32/bin/../lib/gcc/nios2-elf/4.1.2\libgcc.a(_fixunsdfsi.o)
 .data          0x0084b78c        0x0 c:/altera/13.0sp1/nios2eds/bin/gnu/h-i686-mingw32/bin/../lib/gcc/nios2-elf/4.1.2\libgcc.a(_si_to_sf.o)
 .data          0x0084b78c        0x0 c:/altera/13.0sp1/nios2eds/bin/gnu/h-i686-mingw32/bin/../lib/gcc/nios2-elf/4.1.2\libgcc.a(_sf_to_si.o)
 .data          0x0084b78c        0x0 c:/altera/13.0sp1/nios2eds/bin/gnu/h-i686-mingw32/bin/../lib/gcc/nios2-elf/4.1.2\libgcc.a(_usi_to_sf.o)
 .data          0x0084b78c        0x0 c:/altera/13.0sp1/nios2eds/bin/gnu/h-i686-mingw32/bin/../lib/gcc/nios2-elf/4.1.2\libgcc.a(_addsub_df.o)
 .data          0x0084b78c        0x0 c:/altera/13.0sp1/nios2eds/bin/gnu/h-i686-mingw32/bin/../lib/gcc/nios2-elf/4.1.2\libgcc.a(_mul_df.o)
 .data          0x0084b78c        0x0 c:/altera/13.0sp1/nios2eds/bin/gnu/h-i686-mingw32/bin/../lib/gcc/nios2-elf/4.1.2\libgcc.a(_ge_df.o)
 .data          0x0084b78c        0x0 c:/altera/13.0sp1/nios2eds/bin/gnu/h-i686-mingw32/bin/../lib/gcc/nios2-elf/4.1.2\libgcc.a(_df_to_si.o)
 .data          0x0084b78c        0x0 c:/altera/13.0sp1/nios2eds/bin/gnu/h-i686-mingw32/bin/../lib/gcc/nios2-elf/4.1.2\libgcc.a(_thenan_df.o)
 .data          0x0084b78c        0x0 c:/altera/13.0sp1/nios2eds/bin/gnu/h-i686-mingw32/bin/../lib/gcc/nios2-elf/4.1.2\libgcc.a(_usi_to_df.o)
 .data          0x0084b78c        0x0 c:/altera/13.0sp1/nios2eds/bin/gnu/h-i686-mingw32/bin/../lib/gcc/nios2-elf/4.1.2\libgcc.a(_muldi3.o)
 .data          0x0084b78c        0x0 c:/altera/13.0sp1/nios2eds/bin/gnu/h-i686-mingw32/bin/../lib/gcc/nios2-elf/4.1.2\libgcc.a(_clzsi2.o)
 .data          0x0084b78c        0x0 c:/altera/13.0sp1/nios2eds/bin/gnu/h-i686-mingw32/bin/../lib/gcc/nios2-elf/4.1.2\libgcc.a(_pack_sf.o)
 .data          0x0084b78c        0x0 c:/altera/13.0sp1/nios2eds/bin/gnu/h-i686-mingw32/bin/../lib/gcc/nios2-elf/4.1.2\libgcc.a(_unpack_sf.o)
 .data          0x0084b78c        0x0 c:/altera/13.0sp1/nios2eds/bin/gnu/h-i686-mingw32/bin/../lib/gcc/nios2-elf/4.1.2\libgcc.a(_pack_df.o)
 .data          0x0084b78c        0x0 c:/altera/13.0sp1/nios2eds/bin/gnu/h-i686-mingw32/bin/../lib/gcc/nios2-elf/4.1.2\libgcc.a(_unpack_df.o)
 .data          0x0084b78c        0x0 c:/altera/13.0sp1/nios2eds/bin/gnu/h-i686-mingw32/bin/../lib/gcc/nios2-elf/4.1.2\libgcc.a(_fpcmp_parts_df.o)
 .data          0x0084b78c        0x0 c:/altera/13.0sp1/nios2eds/bin/gnu/h-i686-mingw32/bin/../lib/gcc/nios2-elf/4.1.2\libgcc.a(_clz.o)
 .data          0x0084b78c        0x0 c:/altera/13.0sp1/nios2eds/bin/gnu/h-i686-mingw32/bin/../lib/gcc/nios2-elf/4.1.2/../../../../nios2-elf/lib\libc.a(lib_a-ctype_.o)
 .data          0x0084b78c        0x0 c:/altera/13.0sp1/nios2eds/bin/gnu/h-i686-mingw32/bin/../lib/gcc/nios2-elf/4.1.2/../../../../nios2-elf/lib\libc.a(lib_a-exit.o)
 .data          0x0084b78c        0x0 c:/altera/13.0sp1/nios2eds/bin/gnu/h-i686-mingw32/bin/../lib/gcc/nios2-elf/4.1.2/../../../../nios2-elf/lib\libc.a(lib_a-fprintf.o)
 .data          0x0084b78c        0x0 c:/altera/13.0sp1/nios2eds/bin/gnu/h-i686-mingw32/bin/../lib/gcc/nios2-elf/4.1.2/../../../../nios2-elf/lib\libc.a(lib_a-fwrite.o)
 .data          0x0084b78c        0x0 c:/altera/13.0sp1/nios2eds/bin/gnu/h-i686-mingw32/bin/../lib/gcc/nios2-elf/4.1.2/../../../../nios2-elf/lib\libc.a(lib_a-getc.o)
 .data          0x0084b78c      0x400 c:/altera/13.0sp1/nios2eds/bin/gnu/h-i686-mingw32/bin/../lib/gcc/nios2-elf/4.1.2/../../../../nios2-elf/lib\libc.a(lib_a-impure.o)
 .data          0x0084bb8c        0x0 c:/altera/13.0sp1/nios2eds/bin/gnu/h-i686-mingw32/bin/../lib/gcc/nios2-elf/4.1.2/../../../../nios2-elf/lib\libc.a(lib_a-memcpy.o)
 .data          0x0084bb8c        0x0 c:/altera/13.0sp1/nios2eds/bin/gnu/h-i686-mingw32/bin/../lib/gcc/nios2-elf/4.1.2/../../../../nios2-elf/lib\libc.a(lib_a-memmove.o)
 .data          0x0084bb8c        0x0 c:/altera/13.0sp1/nios2eds/bin/gnu/h-i686-mingw32/bin/../lib/gcc/nios2-elf/4.1.2/../../../../nios2-elf/lib\libc.a(lib_a-memset.o)
 .data          0x0084bb8c        0x0 c:/altera/13.0sp1/nios2eds/bin/gnu/h-i686-mingw32/bin/../lib/gcc/nios2-elf/4.1.2/../../../../nios2-elf/lib\libc.a(lib_a-perror.o)
 .data          0x0084bb8c        0x0 c:/altera/13.0sp1/nios2eds/bin/gnu/h-i686-mingw32/bin/../lib/gcc/nios2-elf/4.1.2/../../../../nios2-elf/lib\libc.a(lib_a-printf.o)
 .data          0x0084bb8c        0x0 c:/altera/13.0sp1/nios2eds/bin/gnu/h-i686-mingw32/bin/../lib/gcc/nios2-elf/4.1.2/../../../../nios2-elf/lib\libc.a(lib_a-putc.o)
 .data          0x0084bb8c        0x0 c:/altera/13.0sp1/nios2eds/bin/gnu/h-i686-mingw32/bin/../lib/gcc/nios2-elf/4.1.2/../../../../nios2-elf/lib\libc.a(lib_a-putchar.o)
 .data          0x0084bb8c        0x0 c:/altera/13.0sp1/nios2eds/bin/gnu/h-i686-mingw32/bin/../lib/gcc/nios2-elf/4.1.2/../../../../nios2-elf/lib\libc.a(lib_a-puts.o)
 .data          0x0084bb8c        0x0 c:/altera/13.0sp1/nios2eds/bin/gnu/h-i686-mingw32/bin/../lib/gcc/nios2-elf/4.1.2/../../../../nios2-elf/lib\libc.a(lib_a-rget.o)
 .data          0x0084bb8c        0x0 c:/altera/13.0sp1/nios2eds/bin/gnu/h-i686-mingw32/bin/../lib/gcc/nios2-elf/4.1.2/../../../../nios2-elf/lib\libc.a(lib_a-sprintf.o)
 .data          0x0084bb8c        0x0 c:/altera/13.0sp1/nios2eds/bin/gnu/h-i686-mingw32/bin/../lib/gcc/nios2-elf/4.1.2/../../../../nios2-elf/lib\libc.a(lib_a-strchr.o)
 .data          0x0084bb8c        0x0 c:/altera/13.0sp1/nios2eds/bin/gnu/h-i686-mingw32/bin/../lib/gcc/nios2-elf/4.1.2/../../../../nios2-elf/lib\libc.a(lib_a-strerror.o)
 .data          0x0084bb8c        0x0 c:/altera/13.0sp1/nios2eds/bin/gnu/h-i686-mingw32/bin/../lib/gcc/nios2-elf/4.1.2/../../../../nios2-elf/lib\libc.a(lib_a-strlen.o)
 .data          0x0084bb8c        0x0 c:/altera/13.0sp1/nios2eds/bin/gnu/h-i686-mingw32/bin/../lib/gcc/nios2-elf/4.1.2/../../../../nios2-elf/lib\libc.a(lib_a-u_strerr.o)
 .data          0x0084bb8c        0x0 c:/altera/13.0sp1/nios2eds/bin/gnu/h-i686-mingw32/bin/../lib/gcc/nios2-elf/4.1.2/../../../../nios2-elf/lib\libc.a(lib_a-vfprintf.o)
 .data          0x0084bb8c        0x0 c:/altera/13.0sp1/nios2eds/bin/gnu/h-i686-mingw32/bin/../lib/gcc/nios2-elf/4.1.2/../../../../nios2-elf/lib\libc.a(lib_a-wbuf.o)
 .data          0x0084bb8c        0x0 c:/altera/13.0sp1/nios2eds/bin/gnu/h-i686-mingw32/bin/../lib/gcc/nios2-elf/4.1.2/../../../../nios2-elf/lib\libc.a(lib_a-wsetup.o)
 .data          0x0084bb8c        0x0 c:/altera/13.0sp1/nios2eds/bin/gnu/h-i686-mingw32/bin/../lib/gcc/nios2-elf/4.1.2/../../../../nios2-elf/lib\libc.a(lib_a-__call_atexit.o)
 .data          0x0084bb8c        0x0 c:/altera/13.0sp1/nios2eds/bin/gnu/h-i686-mingw32/bin/../lib/gcc/nios2-elf/4.1.2/../../../../nios2-elf/lib\libc.a(lib_a-dtoa.o)
 .data          0x0084bb8c        0x0 c:/altera/13.0sp1/nios2eds/bin/gnu/h-i686-mingw32/bin/../lib/gcc/nios2-elf/4.1.2/../../../../nios2-elf/lib\libc.a(lib_a-fflush.o)
 .data          0x0084bb8c        0x0 c:/altera/13.0sp1/nios2eds/bin/gnu/h-i686-mingw32/bin/../lib/gcc/nios2-elf/4.1.2/../../../../nios2-elf/lib\libc.a(lib_a-findfp.o)
 .data          0x0084bb8c        0x0 c:/altera/13.0sp1/nios2eds/bin/gnu/h-i686-mingw32/bin/../lib/gcc/nios2-elf/4.1.2/../../../../nios2-elf/lib\libc.a(lib_a-fputc.o)
 .data          0x0084bb8c        0x0 c:/altera/13.0sp1/nios2eds/bin/gnu/h-i686-mingw32/bin/../lib/gcc/nios2-elf/4.1.2/../../../../nios2-elf/lib\libc.a(lib_a-fputs.o)
 .data          0x0084bb8c        0x0 c:/altera/13.0sp1/nios2eds/bin/gnu/h-i686-mingw32/bin/../lib/gcc/nios2-elf/4.1.2/../../../../nios2-elf/lib\libc.a(lib_a-freer.o)
 .data          0x0084bb8c        0x0 c:/altera/13.0sp1/nios2eds/bin/gnu/h-i686-mingw32/bin/../lib/gcc/nios2-elf/4.1.2/../../../../nios2-elf/lib\libc.a(lib_a-fvwrite.o)
 .data          0x0084bb8c        0x0 c:/altera/13.0sp1/nios2eds/bin/gnu/h-i686-mingw32/bin/../lib/gcc/nios2-elf/4.1.2/../../../../nios2-elf/lib\libc.a(lib_a-fwalk.o)
 .data          0x0084bb8c        0xc c:/altera/13.0sp1/nios2eds/bin/gnu/h-i686-mingw32/bin/../lib/gcc/nios2-elf/4.1.2/../../../../nios2-elf/lib\libc.a(lib_a-locale.o)
                0x0084bb8c                __lc_ctype
 .data          0x0084bb98        0x0 c:/altera/13.0sp1/nios2eds/bin/gnu/h-i686-mingw32/bin/../lib/gcc/nios2-elf/4.1.2/../../../../nios2-elf/lib\libc.a(lib_a-makebuf.o)
 .data          0x0084bb98      0x408 c:/altera/13.0sp1/nios2eds/bin/gnu/h-i686-mingw32/bin/../lib/gcc/nios2-elf/4.1.2/../../../../nios2-elf/lib\libc.a(lib_a-mallocr.o)
                0x0084bb98                __malloc_av_
 .data          0x0084bfa0        0x0 c:/altera/13.0sp1/nios2eds/bin/gnu/h-i686-mingw32/bin/../lib/gcc/nios2-elf/4.1.2/../../../../nios2-elf/lib\libc.a(lib_a-memchr.o)
 .data          0x0084bfa0        0x0 c:/altera/13.0sp1/nios2eds/bin/gnu/h-i686-mingw32/bin/../lib/gcc/nios2-elf/4.1.2/../../../../nios2-elf/lib\libc.a(lib_a-mprec.o)
 .data          0x0084bfa0        0x0 c:/altera/13.0sp1/nios2eds/bin/gnu/h-i686-mingw32/bin/../lib/gcc/nios2-elf/4.1.2/../../../../nios2-elf/lib\libc.a(lib_a-reallocr.o)
 .data          0x0084bfa0        0x0 c:/altera/13.0sp1/nios2eds/bin/gnu/h-i686-mingw32/bin/../lib/gcc/nios2-elf/4.1.2/../../../../nios2-elf/lib\libc.a(lib_a-refill.o)
 .data          0x0084bfa0        0x0 c:/altera/13.0sp1/nios2eds/bin/gnu/h-i686-mingw32/bin/../lib/gcc/nios2-elf/4.1.2/../../../../nios2-elf/lib\libc.a(lib_a-s_isinfd.o)
 .data          0x0084bfa0        0x0 c:/altera/13.0sp1/nios2eds/bin/gnu/h-i686-mingw32/bin/../lib/gcc/nios2-elf/4.1.2/../../../../nios2-elf/lib\libc.a(lib_a-s_isnand.o)
 .data          0x0084bfa0        0x0 c:/altera/13.0sp1/nios2eds/bin/gnu/h-i686-mingw32/bin/../lib/gcc/nios2-elf/4.1.2/../../../../nios2-elf/lib\libc.a(lib_a-sbrkr.o)
 .data          0x0084bfa0        0x0 c:/altera/13.0sp1/nios2eds/bin/gnu/h-i686-mingw32/bin/../lib/gcc/nios2-elf/4.1.2/../../../../nios2-elf/lib\libc.a(lib_a-stdio.o)
 .data          0x0084bfa0        0x0 c:/altera/13.0sp1/nios2eds/bin/gnu/h-i686-mingw32/bin/../lib/gcc/nios2-elf/4.1.2/../../../../nios2-elf/lib\libc.a(lib_a-strcmp.o)
 .data          0x0084bfa0        0x0 c:/altera/13.0sp1/nios2eds/bin/gnu/h-i686-mingw32/bin/../lib/gcc/nios2-elf/4.1.2/../../../../nios2-elf/lib\libc.a(lib_a-writer.o)
 .data          0x0084bfa0        0x0 c:/altera/13.0sp1/nios2eds/bin/gnu/h-i686-mingw32/bin/../lib/gcc/nios2-elf/4.1.2/../../../../nios2-elf/lib\libc.a(lib_a-callocr.o)
 .data          0x0084bfa0        0x0 c:/altera/13.0sp1/nios2eds/bin/gnu/h-i686-mingw32/bin/../lib/gcc/nios2-elf/4.1.2/../../../../nios2-elf/lib\libc.a(lib_a-closer.o)
 .data          0x0084bfa0        0x0 c:/altera/13.0sp1/nios2eds/bin/gnu/h-i686-mingw32/bin/../lib/gcc/nios2-elf/4.1.2/../../../../nios2-elf/lib\libc.a(lib_a-fclose.o)
 .data          0x0084bfa0        0x0 c:/altera/13.0sp1/nios2eds/bin/gnu/h-i686-mingw32/bin/../lib/gcc/nios2-elf/4.1.2/../../../../nios2-elf/lib\libc.a(lib_a-fstatr.o)
 .data          0x0084bfa0        0x0 c:/altera/13.0sp1/nios2eds/bin/gnu/h-i686-mingw32/bin/../lib/gcc/nios2-elf/4.1.2/../../../../nios2-elf/lib\libc.a(lib_a-int_errno.o)
 .data          0x0084bfa0        0x0 c:/altera/13.0sp1/nios2eds/bin/gnu/h-i686-mingw32/bin/../lib/gcc/nios2-elf/4.1.2/../../../../nios2-elf/lib\libc.a(lib_a-isattyr.o)
 .data          0x0084bfa0        0x0 c:/altera/13.0sp1/nios2eds/bin/gnu/h-i686-mingw32/bin/../lib/gcc/nios2-elf/4.1.2/../../../../nios2-elf/lib\libc.a(lib_a-lseekr.o)
 .data          0x0084bfa0        0x0 c:/altera/13.0sp1/nios2eds/bin/gnu/h-i686-mingw32/bin/../lib/gcc/nios2-elf/4.1.2/../../../../nios2-elf/lib\libc.a(lib_a-readr.o)
 .data          0x0084bfa0        0x0 c:/altera/13.0sp1/nios2eds/bin/gnu/h-i686-mingw32/bin/../lib/gcc/nios2-elf/4.1.2\libgcc.a(_udivdi3.o)
 .data          0x0084bfa0        0x0 c:/altera/13.0sp1/nios2eds/bin/gnu/h-i686-mingw32/bin/../lib/gcc/nios2-elf/4.1.2\libgcc.a(_umoddi3.o)
 .data          0x0084bfa0        0x0 c:/altera/13.0sp1/nios2eds/bin/gnu/h-i686-mingw32/bin/../lib/gcc/nios2-elf/4.1.2\libgcc.a(_div_df.o)
 .data          0x0084bfa0        0x0 c:/altera/13.0sp1/nios2eds/bin/gnu/h-i686-mingw32/bin/../lib/gcc/nios2-elf/4.1.2\libgcc.a(_eq_df.o)
 .data          0x0084bfa0        0x0 c:/altera/13.0sp1/nios2eds/bin/gnu/h-i686-mingw32/bin/../lib/gcc/nios2-elf/4.1.2\libgcc.a(_ne_df.o)
 .data          0x0084bfa0        0x0 c:/altera/13.0sp1/nios2eds/bin/gnu/h-i686-mingw32/bin/../lib/gcc/nios2-elf/4.1.2\libgcc.a(_gt_df.o)
 .data          0x0084bfa0        0x0 c:/altera/13.0sp1/nios2eds/bin/gnu/h-i686-mingw32/bin/../lib/gcc/nios2-elf/4.1.2\libgcc.a(_lt_df.o)
 .data          0x0084bfa0        0x0 c:/altera/13.0sp1/nios2eds/bin/gnu/h-i686-mingw32/bin/../lib/gcc/nios2-elf/4.1.2\libgcc.a(_si_to_df.o)
 .data          0x0084bfa0        0x0 c:/altera/13.0sp1/nios2eds/bin/gnu/h-i686-mingw32/bin/../lib/gcc/nios2-elf/4.1.2\libgcc.a(lib2-divmod.o)
 .data          0x0084bfa0        0x0 ../server1_bsp/\libucosii_bsp.a(alt_exit.o)
 .data          0x0084bfa0        0x0 ../server1_bsp/\libucosii_bsp.a(alt_flash_dev.o)
 .data          0x0084bfa0        0x0 ../server1_bsp/\libucosii_bsp.a(alt_fstat.o)
 .data          0x0084bfa0        0x0 ../server1_bsp/\libucosii_bsp.a(alt_irq_register.o)
 .data          0x0084bfa0        0x0 ../server1_bsp/\libucosii_bsp.a(alt_irq_vars.o)
 .data          0x0084bfa0        0x0 ../server1_bsp/\libucosii_bsp.a(alt_isatty.o)
 .data          0x0084bfa0        0x0 ../server1_bsp/\libucosii_bsp.a(alt_lseek.o)
 .data          0x0084bfa0        0x0 ../server1_bsp/\libucosii_bsp.a(alt_main.o)
 .data          0x0084bfa0        0x0 ../server1_bsp/\libucosii_bsp.a(alt_sbrk.o)
 .data          0x0084bfa0        0x0 ../server1_bsp/\libucosii_bsp.a(alt_usleep.o)
 .data          0x0084bfa0        0x0 ../server1_bsp/\libucosii_bsp.a(alt_env_lock.o)
 .data          0x0084bfa0        0x0 ../server1_bsp/\libucosii_bsp.a(alt_malloc_lock.o)
 .data          0x0084bfa0        0x0 ../server1_bsp/\libucosii_bsp.a(os_core.o)
 .data          0x0084bfa0        0x0 ../server1_bsp/\libucosii_bsp.a(os_dbg.o)
 .data          0x0084bfa0        0x0 ../server1_bsp/\libucosii_bsp.a(os_flag.o)
 .data          0x0084bfa0        0x0 ../server1_bsp/\libucosii_bsp.a(os_mem.o)
 .data          0x0084bfa0        0x0 ../server1_bsp/\libucosii_bsp.a(os_q.o)
 .data          0x0084bfa0        0x0 ../server1_bsp/\libucosii_bsp.a(os_sem.o)
 .data          0x0084bfa0        0x0 ../server1_bsp/\libucosii_bsp.a(os_task.o)
 .data          0x0084bfa0        0x0 ../server1_bsp/\libucosii_bsp.a(os_time.o)
 .data          0x0084bfa0     0x1400 ../server1_bsp/\libucosii_bsp.a(alt_sys_init.o)
 .data          0x0084d3a0        0x0 ../server1_bsp/\libucosii_bsp.a(altera_avalon_cfi_flash.o)
 .data          0x0084d3a0        0x0 ../server1_bsp/\libucosii_bsp.a(altera_avalon_cfi_flash_table.o)
 .data          0x0084d3a0        0x0 ../server1_bsp/\libucosii_bsp.a(altera_avalon_epcs_flash_controller.o)
 .data          0x0084d3a0        0x0 ../server1_bsp/\libucosii_bsp.a(altera_avalon_jtag_uart_fd.o)
 .data          0x0084d3a0        0x0 ../server1_bsp/\libucosii_bsp.a(altera_avalon_jtag_uart_init.o)
 .data          0x0084d3a0        0x0 ../server1_bsp/\libucosii_bsp.a(altera_avalon_jtag_uart_ioctl.o)
 .data          0x0084d3a0        0x0 ../server1_bsp/\libucosii_bsp.a(altera_avalon_jtag_uart_read.o)
 .data          0x0084d3a0        0x0 ../server1_bsp/\libucosii_bsp.a(altera_avalon_jtag_uart_write.o)
 .data          0x0084d3a0        0x0 ../server1_bsp/\libucosii_bsp.a(altera_avalon_lcd_16207.o)
 .data          0x0084d3a0        0x0 ../server1_bsp/\libucosii_bsp.a(altera_avalon_lcd_16207_fd.o)
 .data          0x0084d3a0        0x0 ../server1_bsp/\libucosii_bsp.a(altera_avalon_timer_sc.o)
 .data          0x0084d3a0        0x0 ../server1_bsp/\libucosii_bsp.a(altera_avalon_uart_fd.o)
 .data          0x0084d3a0        0x0 ../server1_bsp/\libucosii_bsp.a(altera_avalon_uart_init.o)
 .data          0x0084d3a0        0x0 ../server1_bsp/\libucosii_bsp.a(altera_avalon_uart_read.o)
 .data          0x0084d3a0        0x0 ../server1_bsp/\libucosii_bsp.a(altera_avalon_uart_write.o)
 .data          0x0084d3a0        0x0 ../server1_bsp/\libucosii_bsp.a(epcs_commands.o)
 .data          0x0084d3a0        0x0 ../server1_bsp/\libucosii_bsp.a(alt_iniche_close.o)
 .data          0x0084d3a0        0x0 ../server1_bsp/\libucosii_bsp.a(alt_iniche_dev.o)
 .data          0x0084d3a0        0x0 ../server1_bsp/\libucosii_bsp.a(alt_iniche_read.o)
 .data          0x0084d3a0        0x0 ../server1_bsp/\libucosii_bsp.a(alt_iniche_write.o)
 .data          0x0084d3a0        0x0 ../server1_bsp/\libucosii_bsp.a(ipnet.o)
 .data          0x0084d3a0        0x0 ../server1_bsp/\libucosii_bsp.a(ipstart.o)
 .data          0x0084d3a0        0x0 ../server1_bsp/\libucosii_bsp.a(igmp_cmn.o)
 .data          0x0084d3a0        0x0 ../server1_bsp/\libucosii_bsp.a(bsdsock.o)
 .data          0x0084d3a0        0x0 ../server1_bsp/\libucosii_bsp.a(cksum.o)
 .data          0x0084d3a0        0x0 ../server1_bsp/\libucosii_bsp.a(in_utils.o)
 .data          0x0084d3a0       0x30 ../server1_bsp/\libucosii_bsp.a(netmain.o)
                0x0084d3a0                nettasks
 .data          0x0084d3d0        0x0 ../server1_bsp/\libucosii_bsp.a(parseip.o)
 .data          0x0084d3d0        0x0 ../server1_bsp/\libucosii_bsp.a(tk_crnos.o)
 .data          0x0084d3d0        0x0 ../server1_bsp/\libucosii_bsp.a(dhcpclnt.o)
 .data          0x0084d3d0        0x0 ../server1_bsp/\libucosii_bsp.a(dhcputil.o)
 .data          0x0084d3d0        0x0 ../server1_bsp/\libucosii_bsp.a(pktalloc.o)
 .data          0x0084d3d0        0x0 ../server1_bsp/\libucosii_bsp.a(q.o)
 .data          0x0084d3d0        0x0 ../server1_bsp/\libucosii_bsp.a(udp_open.o)
 .data          0x0084d3d0        0x0 ../server1_bsp/\libucosii_bsp.a(asm_cksum.o)
 .data          0x0084d3d0        0x0 ../server1_bsp/\libucosii_bsp.a(brdutils.o)
 .data          0x0084d3d0        0x0 ../server1_bsp/\libucosii_bsp.a(osportco.o)
 .data          0x0084d3d0        0x0 ../server1_bsp/\libucosii_bsp.a(targnios.o)
 .data          0x0084d3d0       0x48 ../server1_bsp/\libucosii_bsp.a(nptcp.o)
                0x0084d3d0                tcp_protosw
                0x0084d3e8                udp_protosw
                0x0084d400                rawip_protosw
 .data          0x0084d418        0x0 ../server1_bsp/\libucosii_bsp.a(rawsock.o)
 .data          0x0084d418        0x0 ../server1_bsp/\libucosii_bsp.a(sockcall.o)
 .data          0x0084d418        0x0 ../server1_bsp/\libucosii_bsp.a(socket.o)
 .data          0x0084d418        0x0 ../server1_bsp/\libucosii_bsp.a(socket2.o)
 .data          0x0084d418        0x0 ../server1_bsp/\libucosii_bsp.a(soselect.o)
 .data          0x0084d418        0x0 ../server1_bsp/\libucosii_bsp.a(tcp_in.o)
 .data          0x0084d418        0xb ../server1_bsp/\libucosii_bsp.a(tcp_out.o)
                0x0084d418                tcp_outflags
 .data          0x0084d423        0x0 ../server1_bsp/\libucosii_bsp.a(tcp_subr.o)
 .data          0x0084d423        0xd ../server1_bsp/\libucosii_bsp.a(tcp_timr.o)
                0x0084d423                tcp_backoff
 .data          0x0084d430        0x0 ../server1_bsp/\libucosii_bsp.a(tcp_usr.o)
 .data          0x0084d430        0x0 ../server1_bsp/\libucosii_bsp.a(tcpport.o)
 .data          0x0084d430        0x0 ../server1_bsp/\libucosii_bsp.a(udpsock.o)
 .data          0x0084d430        0x0 ../server1_bsp/\libucosii_bsp.a(alt_alarm_start.o)
 .data          0x0084d430        0x0 ../server1_bsp/\libucosii_bsp.a(alt_busy_sleep.o)
 .data          0x0084d430        0x0 ../server1_bsp/\libucosii_bsp.a(alt_close.o)
 .data          0x0084d430        0x0 ../server1_bsp/\libucosii_bsp.a(alt_dcache_flush.o)
 .data          0x0084d430      0x1a8 ../server1_bsp/\libucosii_bsp.a(alt_dev.o)
                0x0084d430                alt_dev_null
                0x0084d458                alt_fd_list
 .data          0x0084d5d8        0x0 ../server1_bsp/\libucosii_bsp.a(alt_dev_llist_insert.o)
 .data          0x0084d5d8        0x0 ../server1_bsp/\libucosii_bsp.a(alt_do_ctors.o)
 .data          0x0084d5d8        0x0 ../server1_bsp/\libucosii_bsp.a(alt_do_dtors.o)
 .data          0x0084d5d8        0x0 ../server1_bsp/\libucosii_bsp.a(alt_errno.o)
 .data          0x0084d5d8        0x0 ../server1_bsp/\libucosii_bsp.a(alt_find_dev.o)
 .data          0x0084d5d8        0x0 ../server1_bsp/\libucosii_bsp.a(alt_iic.o)
 .data          0x0084d5d8        0x0 ../server1_bsp/\libucosii_bsp.a(alt_iic_isr_register.o)
 .data          0x0084d5d8        0x0 ../server1_bsp/\libucosii_bsp.a(alt_io_redirect.o)
 .data          0x0084d5d8        0x0 ../server1_bsp/\libucosii_bsp.a(alt_irq_entry.o)
 .data          0x0084d5d8        0x0 ../server1_bsp/\libucosii_bsp.a(alt_irq_handler.o)
 .data          0x0084d5d8        0x0 ../server1_bsp/\libucosii_bsp.a(alt_open.o)
 .data          0x0084d5d8        0x0 ../server1_bsp/\libucosii_bsp.a(alt_read.o)
 .data          0x0084d5d8        0x0 ../server1_bsp/\libucosii_bsp.a(alt_release_fd.o)
 .data          0x0084d5d8        0x0 ../server1_bsp/\libucosii_bsp.a(alt_remap_cached.o)
 .data          0x0084d5d8        0x0 ../server1_bsp/\libucosii_bsp.a(alt_remap_uncached.o)
 .data          0x0084d5d8        0x0 ../server1_bsp/\libucosii_bsp.a(alt_tick.o)
 .data          0x0084d5d8        0x0 ../server1_bsp/\libucosii_bsp.a(alt_write.o)
 .data          0x0084d5d8        0x0 ../server1_bsp/\libucosii_bsp.a(altera_nios2_qsys_irq.o)
 .data          0x0084d5d8        0x0 ../server1_bsp/\libucosii_bsp.a(os_cpu_a.o)
 .data          0x0084d5d8        0x0 ../server1_bsp/\libucosii_bsp.a(os_cpu_c.o)
 .data          0x0084d5d8        0x0 ../server1_bsp/\libucosii_bsp.a(altera_avalon_cfi_flash_amd.o)
 .data          0x0084d5d8        0x0 ../server1_bsp/\libucosii_bsp.a(altera_avalon_cfi_flash_intel.o)
 .data          0x0084d5d8        0x0 ../server1_bsp/\libucosii_bsp.a(altera_avalon_spi.o)
 .data          0x0084d5d8       0x18 ../server1_bsp/\libucosii_bsp.a(allports.o)
                0x0084d5d8                icmpdu_types
 .data          0x0084d5f0        0x0 ../server1_bsp/\libucosii_bsp.a(timeouts.o)
 .data          0x0084d5f0        0x0 ../server1_bsp/\libucosii_bsp.a(tk_misc.o)
 .data          0x0084d5f0        0x0 ../server1_bsp/\libucosii_bsp.a(alt_iniche_fcntl.o)
 .data          0x0084d5f0        0x0 ../server1_bsp/\libucosii_bsp.a(et_arp.o)
 .data          0x0084d5f0        0x0 ../server1_bsp/\libucosii_bsp.a(iface.o)
 .data          0x0084d5f0        0x0 ../server1_bsp/\libucosii_bsp.a(ip.o)
 .data          0x0084d5f0        0x0 ../server1_bsp/\libucosii_bsp.a(ip_reasm.o)
 .data          0x0084d5f0        0x0 ../server1_bsp/\libucosii_bsp.a(ipdemux.o)
 .data          0x0084d5f0        0x0 ../server1_bsp/\libucosii_bsp.a(ipmc.o)
 .data          0x0084d5f0        0x0 ../server1_bsp/\libucosii_bsp.a(ipport.o)
 .data          0x0084d5f0        0x0 ../server1_bsp/\libucosii_bsp.a(ipraw.o)
 .data          0x0084d5f0        0x9 ../server1_bsp/\libucosii_bsp.a(iproute.o)
                0x0084d5f0                rtp_priority
 .data          0x0084d5f9        0x0 ../server1_bsp/\libucosii_bsp.a(udp.o)
 .data          0x0084d5f9        0x0 ../server1_bsp/\libucosii_bsp.a(igmp.o)
 .data          0x0084d5f9        0x0 ../server1_bsp/\libucosii_bsp.a(igmp2.o)
 .data          0x0084d5f9        0x0 ../server1_bsp/\libucosii_bsp.a(ipopt.o)
 .data          0x0084d5f9        0x0 ../server1_bsp/\libucosii_bsp.a(u_mctest.o)
 .data          0x0084d5f9        0x0 ../server1_bsp/\libucosii_bsp.a(dhcsetup.o)
 *fill*         0x0084d5f9        0x3 00
 .data          0x0084d5fc       0xd4 ../server1_bsp/\libucosii_bsp.a(memdev.o)
                0x0084d5fc                mdio
                0x0084d620                mdlist
 .data          0x0084d6d0        0x0 ../server1_bsp/\libucosii_bsp.a(tcpcksum.o)
 .data          0x0084d6d0        0x0 ../server1_bsp/\libucosii_bsp.a(in_pcb.o)
 .data          0x0084d6d0       0x80 ../server1_bsp/\libucosii_bsp.a(vfsfiles.o)
                0x0084d6d0                vfs_root_path
 .data          0x0084d750        0x0 ../server1_bsp/\libucosii_bsp.a(vfsport.o)
 .data          0x0084d750        0x0 ../server1_bsp/\libucosii_bsp.a(alt_exception_entry.o)
 .data          0x0084d750        0x0 ../server1_bsp/\libucosii_bsp.a(alt_fcntl.o)
 .data          0x0084d750        0x0 ../server1_bsp/\libucosii_bsp.a(alt_find_file.o)
 .data          0x0084d750        0x0 ../server1_bsp/\libucosii_bsp.a(alt_get_fd.o)
 .data          0x0084d750       0x18 ../server1_bsp/\libucosii_bsp.a(icmp.o)
 .data          0x0084d768        0x0 c:/altera/13.0sp1/nios2eds/bin/gnu/h-i686-mingw32/bin/../lib/gcc/nios2-elf/4.1.2/../../../../nios2-elf/lib\libc.a(lib_a-atexit.o)
 .data          0x0084d768        0x0 c:/altera/13.0sp1/nios2eds/bin/gnu/h-i686-mingw32/bin/../lib/gcc/nios2-elf/4.1.2/../../../../nios2-elf/lib\libc.a(lib_a-atoi.o)
 .data          0x0084d768        0x0 c:/altera/13.0sp1/nios2eds/bin/gnu/h-i686-mingw32/bin/../lib/gcc/nios2-elf/4.1.2/../../../../nios2-elf/lib\libc.a(lib_a-calloc.o)
 .data          0x0084d768        0x0 c:/altera/13.0sp1/nios2eds/bin/gnu/h-i686-mingw32/bin/../lib/gcc/nios2-elf/4.1.2/../../../../nios2-elf/lib\libc.a(lib_a-malloc.o)
 .data          0x0084d768        0x0 c:/altera/13.0sp1/nios2eds/bin/gnu/h-i686-mingw32/bin/../lib/gcc/nios2-elf/4.1.2/../../../../nios2-elf/lib\libc.a(lib_a-memcmp.o)
 .data          0x0084d768        0x0 c:/altera/13.0sp1/nios2eds/bin/gnu/h-i686-mingw32/bin/../lib/gcc/nios2-elf/4.1.2/../../../../nios2-elf/lib\libc.a(lib_a-strcpy.o)
 .data          0x0084d768        0x0 c:/altera/13.0sp1/nios2eds/bin/gnu/h-i686-mingw32/bin/../lib/gcc/nios2-elf/4.1.2/../../../../nios2-elf/lib\libc.a(lib_a-strncmp.o)
 .data          0x0084d768        0x0 c:/altera/13.0sp1/nios2eds/bin/gnu/h-i686-mingw32/bin/../lib/gcc/nios2-elf/4.1.2/../../../../nios2-elf/lib\libc.a(lib_a-strncpy.o)
 .data          0x0084d768        0x0 c:/altera/13.0sp1/nios2eds/bin/gnu/h-i686-mingw32/bin/../lib/gcc/nios2-elf/4.1.2/../../../../nios2-elf/lib\libc.a(lib_a-strtol.o)
 .data          0x0084d768        0x0 c:/altera/13.0sp1/nios2eds/bin/gnu/h-i686-mingw32/bin/../lib/gcc/nios2-elf/4.1.2/../../../../nios2-elf/lib\libc.a(lib_a-vprintf.o)
 .data          0x0084d768        0x0 c:/altera/13.0sp1/nios2eds/bin/gnu/h-i686-mingw32/bin/../lib/gcc/nios2-elf/4.1.2/../../../../nios2-elf/lib\libc.a(lib_a-vsprintf.o)
 .data          0x0084d768        0x0 c:/altera/13.0sp1/nios2eds/bin/gnu/h-i686-mingw32/bin/../lib/gcc/nios2-elf/4.1.2/../../../../nios2-elf/lib\libc.a(lib_a-__atexit.o)
                0x00855768                _gp = ABSOLUTE ((. + 0x8000))
                0x00855768                PROVIDE (gp, _gp)
 *(.rwdata .rwdata.*)
 *(.sdata .sdata.* .gnu.linkonce.s.*)
 .sdata         0x0084d768        0x4 c:/altera/13.0sp1/nios2eds/bin/gnu/h-i686-mingw32/bin/../lib/gcc/nios2-elf/4.1.2/../../../../nios2-elf/lib\libc.a(lib_a-ctype_.o)
                0x0084d768                __ctype_ptr
 .sdata         0x0084d76c        0x8 c:/altera/13.0sp1/nios2eds/bin/gnu/h-i686-mingw32/bin/../lib/gcc/nios2-elf/4.1.2/../../../../nios2-elf/lib\libc.a(lib_a-impure.o)
                0x0084d76c                _impure_ptr
                0x0084d770                _global_impure_ptr
 .sdata         0x0084d774        0x8 c:/altera/13.0sp1/nios2eds/bin/gnu/h-i686-mingw32/bin/../lib/gcc/nios2-elf/4.1.2/../../../../nios2-elf/lib\libc.a(lib_a-locale.o)
                0x0084d774                __mb_cur_max
 .sdata         0x0084d77c        0x8 c:/altera/13.0sp1/nios2eds/bin/gnu/h-i686-mingw32/bin/../lib/gcc/nios2-elf/4.1.2/../../../../nios2-elf/lib\libc.a(lib_a-mallocr.o)
                0x0084d77c                __malloc_trim_threshold
                0x0084d780                __malloc_sbrk_base
 .sdata         0x0084d784        0x8 ../server1_bsp/\libucosii_bsp.a(alt_flash_dev.o)
                0x0084d784                alt_flash_dev_list
 .sdata         0x0084d78c        0x4 ../server1_bsp/\libucosii_bsp.a(alt_irq_vars.o)
                0x0084d78c                alt_priority_mask
 .sdata         0x0084d790        0x4 ../server1_bsp/\libucosii_bsp.a(alt_sbrk.o)
 .sdata         0x0084d794        0x4 ../server1_bsp/\libucosii_bsp.a(alt_env_lock.o)
 .sdata         0x0084d798        0x4 ../server1_bsp/\libucosii_bsp.a(alt_malloc_lock.o)
 .sdata         0x0084d79c       0x74 ../server1_bsp/\libucosii_bsp.a(os_dbg.o)
                0x0084d79c                OSDebugEn
                0x0084d7a0                OSEndiannessTest
                0x0084d7a4                OSEventEn
                0x0084d7a6                OSEventMax
                0x0084d7a8                OSEventNameSize
                0x0084d7aa                OSEventSize
                0x0084d7ac                OSEventTblSize
                0x0084d7ae                OSEventMultiEn
                0x0084d7b0                OSFlagEn
                0x0084d7b2                OSFlagGrpSize
                0x0084d7b4                OSFlagNodeSize
                0x0084d7b6                OSFlagWidth
                0x0084d7b8                OSFlagMax
                0x0084d7ba                OSFlagNameSize
                0x0084d7bc                OSLowestPrio
                0x0084d7be                OSMboxEn
                0x0084d7c0                OSMemEn
                0x0084d7c2                OSMemMax
                0x0084d7c4                OSMemNameSize
                0x0084d7c6                OSMemSize
                0x0084d7c8                OSMemTblSize
                0x0084d7ca                OSMutexEn
                0x0084d7cc                OSPtrSize
                0x0084d7ce                OSQEn
                0x0084d7d0                OSQMax
                0x0084d7d2                OSQSize
                0x0084d7d4                OSRdyTblSize
                0x0084d7d6                OSSemEn
                0x0084d7d8                OSStkWidth
                0x0084d7da                OSTaskCreateEn
                0x0084d7dc                OSTaskCreateExtEn
                0x0084d7de                OSTaskDelEn
                0x0084d7e0                OSTaskIdleStkSize
                0x0084d7e2                OSTaskProfileEn
                0x0084d7e4                OSTaskMax
                0x0084d7e6                OSTaskNameSize
                0x0084d7e8                OSTaskStatEn
                0x0084d7ea                OSTaskStatStkSize
                0x0084d7ec                OSTaskStatStkChkEn
                0x0084d7ee                OSTaskSwHookEn
                0x0084d7f0                OSTCBPrioTblMax
                0x0084d7f2                OSTCBSize
                0x0084d7f4                OSTicksPerSec
                0x0084d7f6                OSTimeTickHookEn
                0x0084d7f8                OSVersionNbr
                0x0084d7fa                OSTmrEn
                0x0084d7fc                OSTmrCfgMax
                0x0084d7fe                OSTmrCfgNameSize
                0x0084d800                OSTmrCfgWheelSize
                0x0084d802                OSTmrCfgTicksPerSec
                0x0084d804                OSTmrSize
                0x0084d806                OSTmrTblSize
                0x0084d808                OSTmrWheelSize
                0x0084d80a                OSTmrWheelTblSize
                0x0084d80c                OSDataSize
 .sdata         0x0084d810        0x4 ../server1_bsp/\libucosii_bsp.a(altera_avalon_lcd_16207.o)
 .sdata         0x0084d814        0x8 ../server1_bsp/\libucosii_bsp.a(alt_iniche_dev.o)
                0x0084d814                alt_iniche_dev_list
 .sdata         0x0084d81c        0x4 ../server1_bsp/\libucosii_bsp.a(ipstart.o)
                0x0084d81c                ipmcfail_str
 .sdata         0x0084d820        0x4 ../server1_bsp/\libucosii_bsp.a(cksum.o)
 .sdata         0x0084d824        0x4 ../server1_bsp/\libucosii_bsp.a(netmain.o)
                0x0084d824                num_net_tasks
 .sdata         0x0084d828        0x4 ../server1_bsp/\libucosii_bsp.a(parseip.o)
                0x0084d828                pton_error
 .sdata         0x0084d82c        0xc ../server1_bsp/\libucosii_bsp.a(dhcpclnt.o)
                0x0084d82c                xids
                0x0084d830                reqlist
                0x0084d834                reqlist_len
 .sdata         0x0084d838       0x10 ../server1_bsp/\libucosii_bsp.a(pktalloc.o)
                0x0084d838                lilbufs
                0x0084d83c                lilbufsiz
                0x0084d840                bigbufs
                0x0084d844                bigbufsiz
 .sdata         0x0084d848        0x4 ../server1_bsp/\libucosii_bsp.a(brdutils.o)
                0x0084d848                kb_last
 .sdata         0x0084d84c        0x4 ../server1_bsp/\libucosii_bsp.a(nptcp.o)
                0x0084d84c                TCPTV_MSL
 .sdata         0x0084d850        0x2 ../server1_bsp/\libucosii_bsp.a(socket.o)
                0x0084d850                socket_defaults
 .sdata         0x0084d852        0x1 ../server1_bsp/\libucosii_bsp.a(tcp_in.o)
                0x0084d852                tcprexmtthresh
 *fill*         0x0084d853        0x1 00
 .sdata         0x0084d854        0x4 ../server1_bsp/\libucosii_bsp.a(tcp_subr.o)
                0x0084d854                tcp_ttl
 .sdata         0x0084d858        0x8 ../server1_bsp/\libucosii_bsp.a(tcp_timr.o)
                0x0084d858                tcp_keepidle
                0x0084d85c                tcp_keepintvl
 .sdata         0x0084d860        0x8 ../server1_bsp/\libucosii_bsp.a(tcp_usr.o)
                0x0084d860                tcp_sendspace
                0x0084d864                tcp_recvspace
 .sdata         0x0084d868       0x14 ../server1_bsp/\libucosii_bsp.a(alt_dev.o)
                0x0084d868                alt_fs_list
                0x0084d870                alt_dev_list
                0x0084d878                alt_max_fd
 .sdata         0x0084d87c        0x4 ../server1_bsp/\libucosii_bsp.a(alt_errno.o)
                0x0084d87c                alt_errno
 .sdata         0x0084d880        0x8 ../server1_bsp/\libucosii_bsp.a(alt_tick.o)
                0x0084d880                alt_alarm_list
 .sdata         0x0084d888       0x10 ../server1_bsp/\libucosii_bsp.a(allports.o)
                0x0084d888                name
                0x0084d88c                prompt
                0x0084d890                pingdelay
                0x0084d894                deflength
 .sdata         0x0084d898        0x4 ../server1_bsp/\libucosii_bsp.a(et_arp.o)
                0x0084d898                arp_ageout
 .sdata         0x0084d89c        0x8 ../server1_bsp/\libucosii_bsp.a(ip.o)
                0x0084d8a0                ipRoutes
 .sdata         0x0084d8a4        0x4 ../server1_bsp/\libucosii_bsp.a(u_mctest.o)
 .sdata         0x0084d8a8        0x4 ../server1_bsp/\libucosii_bsp.a(memdev.o)
                0x0084d8a8                mdlist_size
 .sdata         0x0084d8ac        0x4 ../server1_bsp/\libucosii_bsp.a(vfsfiles.o)
                0x0084d8ac                http_root_path
 *(.sdata2 .sdata2.* .gnu.linkonce.s2.*)
                0x0084d8b0                . = ALIGN (0x4)
                0x0084d8b0                _edata = ABSOLUTE (.)
                0x0084d8b0                PROVIDE (edata, ABSOLUTE (.))
                0x0084d8b0                PROVIDE (__ram_rwdata_end, ABSOLUTE (.))
                0x0084b774                PROVIDE (__flash_rwdata_start, LOADADDR (.rwdata))

.bss            0x0084d8b0     0xaa24
                0x0084d8b0                __bss_start = ABSOLUTE (.)
                0x0084d8b0                PROVIDE (__sbss_start, ABSOLUTE (.))
                0x0084d8b0                PROVIDE (___sbss_start, ABSOLUTE (.))
 *(.dynsbss)
 *(.sbss .sbss.* .gnu.linkonce.sb.*)
 .sbss          0x0084d8b0        0x8 obj/default/SSS_DE2_115.o
                0x0084d8b0                last_flash_sector_offset
                0x0084d8b4                last_flash_sector
 .sbss          0x0084d8b8        0x8 obj/default/dm9000a.o
                0x0084d8b8                autoReset
                0x0084d8bc                netisrs
 .sbss          0x0084d8c0        0x1 obj/default/iniche_init.o
                0x0084d8c0                to_ssstask
 *fill*         0x0084d8c1        0x3 00
 .sbss          0x0084d8c4       0x10 obj/default/simple_socket_server.o
                0x0084d8c8                SSSLEDCommandQ
                0x0084d8cc                SSSLEDLightshowSem
                0x0084d8d0                SSSLEDEventFlag
 .sbss          0x0084d8d4        0xc c:/altera/13.0sp1/nios2eds/bin/gnu/h-i686-mingw32/bin/../lib/gcc/nios2-elf/4.1.2/../../../../nios2-elf/lib\libc.a(lib_a-locale.o)
                0x0084d8d4                __nlocale_changed
                0x0084d8d8                __mlocale_changed
                0x0084d8dc                _PathLocale
 .sbss          0x0084d8e0        0xc c:/altera/13.0sp1/nios2eds/bin/gnu/h-i686-mingw32/bin/../lib/gcc/nios2-elf/4.1.2/../../../../nios2-elf/lib\libc.a(lib_a-mallocr.o)
                0x0084d8e0                __malloc_top_pad
                0x0084d8e4                __malloc_max_sbrked_mem
                0x0084d8e8                __malloc_max_total_mem
 .sbss          0x0084d8ec        0x4 c:/altera/13.0sp1/nios2eds/bin/gnu/h-i686-mingw32/bin/../lib/gcc/nios2-elf/4.1.2/../../../../nios2-elf/lib\libc.a(lib_a-int_errno.o)
                0x0084d8ec                errno
 .sbss          0x0084d8f0        0x4 ../server1_bsp/\libucosii_bsp.a(alt_irq_vars.o)
                0x0084d8f0                alt_irq_active
 .sbss          0x0084d8f4        0xc ../server1_bsp/\libucosii_bsp.a(alt_main.o)
                0x0084d8f4                alt_argc
                0x0084d8f8                alt_argv
                0x0084d8fc                alt_envp
 .sbss          0x0084d900        0x8 ../server1_bsp/\libucosii_bsp.a(alt_env_lock.o)
                0x0084d904                alt_envsem
 .sbss          0x0084d908        0x8 ../server1_bsp/\libucosii_bsp.a(alt_malloc_lock.o)
                0x0084d90c                alt_heapsem
 .sbss          0x0084d910       0x50 ../server1_bsp/\libucosii_bsp.a(os_core.o)
                0x0084d910                OSLockNesting
                0x0084d911                OSRunning
                0x0084d914                OSIdleCtr
                0x0084d918                OSPrioHighRdy
                0x0084d919                OSPrioCur
                0x0084d91c                OSTCBList
                0x0084d920                OSTickStepState
                0x0084d924                OSCtxSwCtr
                0x0084d928                OSIdleCtrMax
                0x0084d92c                OSTCBFreeList
                0x0084d930                OSCPUUsage
                0x0084d931                OSTaskCtr
                0x0084d934                OSMemFreeList
                0x0084d938                OSTCBHighRdy
                0x0084d93c                OSQFreeList
                0x0084d940                OSRdyGrp
                0x0084d941                OSRdyTbl
                0x0084d944                OSEventFreeList
                0x0084d948                OSIntNesting
                0x0084d94c                OSTCBCur
                0x0084d950                OSTime
                0x0084d954                OSFlagFreeList
                0x0084d958                OSStatRdy
                0x0084d95c                OSIdleCtrRun
 .sbss          0x0084d960        0xc ../server1_bsp/\libucosii_bsp.a(ipnet.o)
                0x0084d960                MaxLnh
                0x0084d964                MaxMtu
                0x0084d968                NDEBUG
 .sbss          0x0084d96c        0x8 ../server1_bsp/\libucosii_bsp.a(ipstart.o)
                0x0084d96c                ifNumber
 .sbss          0x0084d974       0x10 ../server1_bsp/\libucosii_bsp.a(igmp_cmn.o)
                0x0084d974                igmp_timers_are_running
                0x0084d978                igmp_cticks
                0x0084d97c                igmp_all_hosts_group
                0x0084d980                igmp_all_rtrs_group
 .sbss          0x0084d984        0xe ../server1_bsp/\libucosii_bsp.a(netmain.o)
                0x0084d984                netmain_wakes
                0x0084d988                nettick_wakes
                0x0084d98c                iniche_net_ready
                0x0084d990                to_netmain
                0x0084d991                to_nettick
 *fill*         0x0084d992        0x2 00
 .sbss          0x0084d994        0x4 ../server1_bsp/\libucosii_bsp.a(tk_crnos.o)
                0x0084d994                tcp_sleep_timeout
 .sbss          0x0084d998       0x34 ../server1_bsp/\libucosii_bsp.a(dhcpclnt.o)
                0x0084d998                dhc_conn
                0x0084d99c                dsc_errors
                0x0084d9a0                dsc_discovers
                0x0084d9a4                dsc_offers
                0x0084d9a8                dsc_requests
                0x0084d9ac                dsc_acks
                0x0084d9b0                dsc_bpreplys
                0x0084d9b4                dsc_declines
                0x0084d9b8                dsc_releases
                0x0084d9bc                dsc_naks
                0x0084d9c0                dsc_renew
                0x0084d9c4                dsc_rebind
                0x0084d9c8                dsc_rlyerrs
 .sbss          0x0084d9cc        0x4 ../server1_bsp/\libucosii_bsp.a(udp_open.o)
                0x0084d9cc                firstudp
 .sbss          0x0084d9d0       0x18 ../server1_bsp/\libucosii_bsp.a(brdutils.o)
                0x0084d9d4                cticks_initialized
                0x0084d9d8                irq_level
                0x0084d9e0                cticks_factor
                0x0084d9e4                OS_TPS
 .sbss          0x0084d9e8       0x18 ../server1_bsp/\libucosii_bsp.a(osportco.o)
                0x0084d9e8                tcp_sleep_count
                0x0084d9ec                tcp_wakeup_count
                0x0084d9f0                netq_intmask
                0x0084d9f4                old_mode
                0x0084d9f8                global_TCPwakeup_setIndx
                0x0084d9fc                cticks
 .sbss          0x0084da00        0xc ../server1_bsp/\libucosii_bsp.a(targnios.o)
                0x0084da00                memtrapsize
                0x0084da04                mheap_sem_ptr
                0x0084da08                rcvdq_sem_ptr
 .sbss          0x0084da0c       0x12 ../server1_bsp/\libucosii_bsp.a(nptcp.o)
                0x0084da0c                nextslow
                0x0084da14                mbstat
                0x0084da1c                select_wait
 *fill*         0x0084da1e        0x2 00
 .sbss          0x0084da20        0x8 ../server1_bsp/\libucosii_bsp.a(tcp_in.o)
                0x0084da20                tcpprintfs
                0x0084da24                dropline
 .sbss          0x0084da28        0x4 ../server1_bsp/\libucosii_bsp.a(tcp_out.o)
                0x0084da28                tcp_optionbuf
 .sbss          0x0084da2c        0x8 ../server1_bsp/\libucosii_bsp.a(tcp_timr.o)
                0x0084da2c                tcp_maxidle
                0x0084da30                tcp_iss
 .sbss          0x0084da34        0x4 ../server1_bsp/\libucosii_bsp.a(alt_dev.o)
                0x0084da34                alt_fd_list_lock
 .sbss          0x0084da38        0x8 ../server1_bsp/\libucosii_bsp.a(alt_tick.o)
                0x0084da38                _alt_tick_rate
                0x0084da3c                _alt_nticks
 .sbss          0x0084da40        0x8 ../server1_bsp/\libucosii_bsp.a(allports.o)
                0x0084da40                activehost
 .sbss          0x0084da48        0xc ../server1_bsp/\libucosii_bsp.a(timeouts.o)
                0x0084da48                nextppp
                0x0084da4c                port_1s_callout
 .sbss          0x0084da54       0x1c ../server1_bsp/\libucosii_bsp.a(et_arp.o)
                0x0084da58                arpcache
                0x0084da5c                arpReqsIn
                0x0084da60                arpReqsOut
                0x0084da64                arpRepsIn
                0x0084da68                arpRepsOut
 .sbss          0x0084da70        0x4 ../server1_bsp/\libucosii_bsp.a(ip.o)
                0x0084da70                rt_mib
 .sbss          0x0084da74        0xc ../server1_bsp/\libucosii_bsp.a(ip_reasm.o)
                0x0084da74                ipr_curr_mem
                0x0084da78                h_ireq
                0x0084da7c                ire_cticks
 .sbss          0x0084da80       0x11 ../server1_bsp/\libucosii_bsp.a(ipport.o)
                0x0084da80                port_prep
                0x0084da84                net_system_exit
                0x0084da88                so_evtmap_create
                0x0084da8c                so_evtmap_delete
                0x0084da90                so_evtmap
 *fill*         0x0084da91        0x3 00
 .sbss          0x0084da94        0x4 ../server1_bsp/\libucosii_bsp.a(ipraw.o)
                0x0084da94                ipraw_eps
 .sbss          0x0084da98        0x4 ../server1_bsp/\libucosii_bsp.a(iproute.o)
                0x0084da98                cachedRoute
 .sbss          0x0084da9c        0x2 ../server1_bsp/\libucosii_bsp.a(udp.o)
 *fill*         0x0084da9e        0x2 00
 .sbss          0x0084daa0        0x8 ../server1_bsp/\libucosii_bsp.a(in_pcb.o)
                0x0084daa0                inpcb_cachehits
                0x0084daa4                inpcb_cachemiss
 .sbss          0x0084daa8       0x20 ../server1_bsp/\libucosii_bsp.a(vfsfiles.o)
                0x0084daa8                vfsystems
                0x0084daac                vfiles
                0x0084dab0                vfsfiles
                0x0084dab4                vfopen_error
                0x0084dab8                vfs_dir_stale
                0x0084dabc                vfs_open_files
                0x0084dac0                vfs_total_rw_space
                0x0084dac4                vfs_total_dyna_files
 .sbss          0x0084dac8        0x4 ../server1_bsp/\libucosii_bsp.a(icmp.o)
                0x0084dac8                icmpdu_hook
 *(.sbss2 .sbss2.* .gnu.linkonce.sb2.*)
 *(.scommon)
                0x0084dacc                PROVIDE (__sbss_end, ABSOLUTE (.))
                0x0084dacc                PROVIDE (___sbss_end, ABSOLUTE (.))
 *(.dynbss)
 *(.bss .bss.* .gnu.linkonce.b.*)
 .bss           0x0084dacc        0x0 ../server1_bsp//obj/HAL/src/crt0.o
 .bss           0x0084dacc        0x0 obj/default/LCD.o
 .bss           0x0084dacc        0x0 obj/default/SSS_DE2_115.o
 .bss           0x0084dacc        0x0 obj/default/alt_error_handler.o
 .bss           0x0084dacc        0x0 obj/default/dm9000a.o
 .bss           0x0084dacc        0x0 obj/default/iniche_init.o
 .bss           0x0084dacc        0x0 obj/default/led.o
 .bss           0x0084dacc        0x0 obj/default/network_utilities.o
 .bss           0x0084dacc      0x5f0 obj/default/simple_socket_server.o
 .bss           0x0084e0bc        0x0 obj/default/tse_my_system.o
 .bss           0x0084e0bc        0x0 c:/altera/13.0sp1/nios2eds/bin/gnu/h-i686-mingw32/bin/../lib/gcc/nios2-elf/4.1.2\libgcc.a(_fixunsdfsi.o)
 .bss           0x0084e0bc        0x0 c:/altera/13.0sp1/nios2eds/bin/gnu/h-i686-mingw32/bin/../lib/gcc/nios2-elf/4.1.2\libgcc.a(_si_to_sf.o)
 .bss           0x0084e0bc        0x0 c:/altera/13.0sp1/nios2eds/bin/gnu/h-i686-mingw32/bin/../lib/gcc/nios2-elf/4.1.2\libgcc.a(_sf_to_si.o)
 .bss           0x0084e0bc        0x0 c:/altera/13.0sp1/nios2eds/bin/gnu/h-i686-mingw32/bin/../lib/gcc/nios2-elf/4.1.2\libgcc.a(_usi_to_sf.o)
 .bss           0x0084e0bc        0x0 c:/altera/13.0sp1/nios2eds/bin/gnu/h-i686-mingw32/bin/../lib/gcc/nios2-elf/4.1.2\libgcc.a(_addsub_df.o)
 .bss           0x0084e0bc        0x0 c:/altera/13.0sp1/nios2eds/bin/gnu/h-i686-mingw32/bin/../lib/gcc/nios2-elf/4.1.2\libgcc.a(_mul_df.o)
 .bss           0x0084e0bc        0x0 c:/altera/13.0sp1/nios2eds/bin/gnu/h-i686-mingw32/bin/../lib/gcc/nios2-elf/4.1.2\libgcc.a(_ge_df.o)
 .bss           0x0084e0bc        0x0 c:/altera/13.0sp1/nios2eds/bin/gnu/h-i686-mingw32/bin/../lib/gcc/nios2-elf/4.1.2\libgcc.a(_df_to_si.o)
 .bss           0x0084e0bc        0x0 c:/altera/13.0sp1/nios2eds/bin/gnu/h-i686-mingw32/bin/../lib/gcc/nios2-elf/4.1.2\libgcc.a(_thenan_df.o)
 .bss           0x0084e0bc        0x0 c:/altera/13.0sp1/nios2eds/bin/gnu/h-i686-mingw32/bin/../lib/gcc/nios2-elf/4.1.2\libgcc.a(_usi_to_df.o)
 .bss           0x0084e0bc        0x0 c:/altera/13.0sp1/nios2eds/bin/gnu/h-i686-mingw32/bin/../lib/gcc/nios2-elf/4.1.2\libgcc.a(_muldi3.o)
 .bss           0x0084e0bc        0x0 c:/altera/13.0sp1/nios2eds/bin/gnu/h-i686-mingw32/bin/../lib/gcc/nios2-elf/4.1.2\libgcc.a(_clzsi2.o)
 .bss           0x0084e0bc        0x0 c:/altera/13.0sp1/nios2eds/bin/gnu/h-i686-mingw32/bin/../lib/gcc/nios2-elf/4.1.2\libgcc.a(_pack_sf.o)
 .bss           0x0084e0bc        0x0 c:/altera/13.0sp1/nios2eds/bin/gnu/h-i686-mingw32/bin/../lib/gcc/nios2-elf/4.1.2\libgcc.a(_unpack_sf.o)
 .bss           0x0084e0bc        0x0 c:/altera/13.0sp1/nios2eds/bin/gnu/h-i686-mingw32/bin/../lib/gcc/nios2-elf/4.1.2\libgcc.a(_pack_df.o)
 .bss           0x0084e0bc        0x0 c:/altera/13.0sp1/nios2eds/bin/gnu/h-i686-mingw32/bin/../lib/gcc/nios2-elf/4.1.2\libgcc.a(_unpack_df.o)
 .bss           0x0084e0bc        0x0 c:/altera/13.0sp1/nios2eds/bin/gnu/h-i686-mingw32/bin/../lib/gcc/nios2-elf/4.1.2\libgcc.a(_fpcmp_parts_df.o)
 .bss           0x0084e0bc        0x0 c:/altera/13.0sp1/nios2eds/bin/gnu/h-i686-mingw32/bin/../lib/gcc/nios2-elf/4.1.2\libgcc.a(_clz.o)
 .bss           0x0084e0bc        0x0 c:/altera/13.0sp1/nios2eds/bin/gnu/h-i686-mingw32/bin/../lib/gcc/nios2-elf/4.1.2/../../../../nios2-elf/lib\libc.a(lib_a-ctype_.o)
 .bss           0x0084e0bc        0x0 c:/altera/13.0sp1/nios2eds/bin/gnu/h-i686-mingw32/bin/../lib/gcc/nios2-elf/4.1.2/../../../../nios2-elf/lib\libc.a(lib_a-exit.o)
 .bss           0x0084e0bc        0x0 c:/altera/13.0sp1/nios2eds/bin/gnu/h-i686-mingw32/bin/../lib/gcc/nios2-elf/4.1.2/../../../../nios2-elf/lib\libc.a(lib_a-fprintf.o)
 .bss           0x0084e0bc        0x0 c:/altera/13.0sp1/nios2eds/bin/gnu/h-i686-mingw32/bin/../lib/gcc/nios2-elf/4.1.2/../../../../nios2-elf/lib\libc.a(lib_a-fwrite.o)
 .bss           0x0084e0bc        0x0 c:/altera/13.0sp1/nios2eds/bin/gnu/h-i686-mingw32/bin/../lib/gcc/nios2-elf/4.1.2/../../../../nios2-elf/lib\libc.a(lib_a-getc.o)
 .bss           0x0084e0bc        0x0 c:/altera/13.0sp1/nios2eds/bin/gnu/h-i686-mingw32/bin/../lib/gcc/nios2-elf/4.1.2/../../../../nios2-elf/lib\libc.a(lib_a-impure.o)
 .bss           0x0084e0bc        0x0 c:/altera/13.0sp1/nios2eds/bin/gnu/h-i686-mingw32/bin/../lib/gcc/nios2-elf/4.1.2/../../../../nios2-elf/lib\libc.a(lib_a-memcpy.o)
 .bss           0x0084e0bc        0x0 c:/altera/13.0sp1/nios2eds/bin/gnu/h-i686-mingw32/bin/../lib/gcc/nios2-elf/4.1.2/../../../../nios2-elf/lib\libc.a(lib_a-memmove.o)
 .bss           0x0084e0bc        0x0 c:/altera/13.0sp1/nios2eds/bin/gnu/h-i686-mingw32/bin/../lib/gcc/nios2-elf/4.1.2/../../../../nios2-elf/lib\libc.a(lib_a-memset.o)
 .bss           0x0084e0bc        0x0 c:/altera/13.0sp1/nios2eds/bin/gnu/h-i686-mingw32/bin/../lib/gcc/nios2-elf/4.1.2/../../../../nios2-elf/lib\libc.a(lib_a-perror.o)
 .bss           0x0084e0bc        0x0 c:/altera/13.0sp1/nios2eds/bin/gnu/h-i686-mingw32/bin/../lib/gcc/nios2-elf/4.1.2/../../../../nios2-elf/lib\libc.a(lib_a-printf.o)
 .bss           0x0084e0bc        0x0 c:/altera/13.0sp1/nios2eds/bin/gnu/h-i686-mingw32/bin/../lib/gcc/nios2-elf/4.1.2/../../../../nios2-elf/lib\libc.a(lib_a-putc.o)
 .bss           0x0084e0bc        0x0 c:/altera/13.0sp1/nios2eds/bin/gnu/h-i686-mingw32/bin/../lib/gcc/nios2-elf/4.1.2/../../../../nios2-elf/lib\libc.a(lib_a-putchar.o)
 .bss           0x0084e0bc        0x0 c:/altera/13.0sp1/nios2eds/bin/gnu/h-i686-mingw32/bin/../lib/gcc/nios2-elf/4.1.2/../../../../nios2-elf/lib\libc.a(lib_a-puts.o)
 .bss           0x0084e0bc        0x0 c:/altera/13.0sp1/nios2eds/bin/gnu/h-i686-mingw32/bin/../lib/gcc/nios2-elf/4.1.2/../../../../nios2-elf/lib\libc.a(lib_a-rget.o)
 .bss           0x0084e0bc        0x0 c:/altera/13.0sp1/nios2eds/bin/gnu/h-i686-mingw32/bin/../lib/gcc/nios2-elf/4.1.2/../../../../nios2-elf/lib\libc.a(lib_a-sprintf.o)
 .bss           0x0084e0bc        0x0 c:/altera/13.0sp1/nios2eds/bin/gnu/h-i686-mingw32/bin/../lib/gcc/nios2-elf/4.1.2/../../../../nios2-elf/lib\libc.a(lib_a-strchr.o)
 .bss           0x0084e0bc        0x0 c:/altera/13.0sp1/nios2eds/bin/gnu/h-i686-mingw32/bin/../lib/gcc/nios2-elf/4.1.2/../../../../nios2-elf/lib\libc.a(lib_a-strerror.o)
 .bss           0x0084e0bc        0x0 c:/altera/13.0sp1/nios2eds/bin/gnu/h-i686-mingw32/bin/../lib/gcc/nios2-elf/4.1.2/../../../../nios2-elf/lib\libc.a(lib_a-strlen.o)
 .bss           0x0084e0bc        0x0 c:/altera/13.0sp1/nios2eds/bin/gnu/h-i686-mingw32/bin/../lib/gcc/nios2-elf/4.1.2/../../../../nios2-elf/lib\libc.a(lib_a-u_strerr.o)
 .bss           0x0084e0bc        0x0 c:/altera/13.0sp1/nios2eds/bin/gnu/h-i686-mingw32/bin/../lib/gcc/nios2-elf/4.1.2/../../../../nios2-elf/lib\libc.a(lib_a-vfprintf.o)
 .bss           0x0084e0bc        0x0 c:/altera/13.0sp1/nios2eds/bin/gnu/h-i686-mingw32/bin/../lib/gcc/nios2-elf/4.1.2/../../../../nios2-elf/lib\libc.a(lib_a-wbuf.o)
 .bss           0x0084e0bc        0x0 c:/altera/13.0sp1/nios2eds/bin/gnu/h-i686-mingw32/bin/../lib/gcc/nios2-elf/4.1.2/../../../../nios2-elf/lib\libc.a(lib_a-wsetup.o)
 .bss           0x0084e0bc        0x0 c:/altera/13.0sp1/nios2eds/bin/gnu/h-i686-mingw32/bin/../lib/gcc/nios2-elf/4.1.2/../../../../nios2-elf/lib\libc.a(lib_a-__call_atexit.o)
 .bss           0x0084e0bc        0x0 c:/altera/13.0sp1/nios2eds/bin/gnu/h-i686-mingw32/bin/../lib/gcc/nios2-elf/4.1.2/../../../../nios2-elf/lib\libc.a(lib_a-dtoa.o)
 .bss           0x0084e0bc        0x0 c:/altera/13.0sp1/nios2eds/bin/gnu/h-i686-mingw32/bin/../lib/gcc/nios2-elf/4.1.2/../../../../nios2-elf/lib\libc.a(lib_a-fflush.o)
 .bss           0x0084e0bc        0x0 c:/altera/13.0sp1/nios2eds/bin/gnu/h-i686-mingw32/bin/../lib/gcc/nios2-elf/4.1.2/../../../../nios2-elf/lib\libc.a(lib_a-findfp.o)
 .bss           0x0084e0bc        0x0 c:/altera/13.0sp1/nios2eds/bin/gnu/h-i686-mingw32/bin/../lib/gcc/nios2-elf/4.1.2/../../../../nios2-elf/lib\libc.a(lib_a-fputc.o)
 .bss           0x0084e0bc        0x0 c:/altera/13.0sp1/nios2eds/bin/gnu/h-i686-mingw32/bin/../lib/gcc/nios2-elf/4.1.2/../../../../nios2-elf/lib\libc.a(lib_a-fputs.o)
 .bss           0x0084e0bc        0x0 c:/altera/13.0sp1/nios2eds/bin/gnu/h-i686-mingw32/bin/../lib/gcc/nios2-elf/4.1.2/../../../../nios2-elf/lib\libc.a(lib_a-freer.o)
 .bss           0x0084e0bc        0x0 c:/altera/13.0sp1/nios2eds/bin/gnu/h-i686-mingw32/bin/../lib/gcc/nios2-elf/4.1.2/../../../../nios2-elf/lib\libc.a(lib_a-fvwrite.o)
 .bss           0x0084e0bc        0x0 c:/altera/13.0sp1/nios2eds/bin/gnu/h-i686-mingw32/bin/../lib/gcc/nios2-elf/4.1.2/../../../../nios2-elf/lib\libc.a(lib_a-fwalk.o)
 .bss           0x0084e0bc        0x0 c:/altera/13.0sp1/nios2eds/bin/gnu/h-i686-mingw32/bin/../lib/gcc/nios2-elf/4.1.2/../../../../nios2-elf/lib\libc.a(lib_a-locale.o)
 .bss           0x0084e0bc        0x0 c:/altera/13.0sp1/nios2eds/bin/gnu/h-i686-mingw32/bin/../lib/gcc/nios2-elf/4.1.2/../../../../nios2-elf/lib\libc.a(lib_a-makebuf.o)
 .bss           0x0084e0bc       0x28 c:/altera/13.0sp1/nios2eds/bin/gnu/h-i686-mingw32/bin/../lib/gcc/nios2-elf/4.1.2/../../../../nios2-elf/lib\libc.a(lib_a-mallocr.o)
                0x0084e0bc                __malloc_current_mallinfo
 .bss           0x0084e0e4        0x0 c:/altera/13.0sp1/nios2eds/bin/gnu/h-i686-mingw32/bin/../lib/gcc/nios2-elf/4.1.2/../../../../nios2-elf/lib\libc.a(lib_a-memchr.o)
 .bss           0x0084e0e4        0x0 c:/altera/13.0sp1/nios2eds/bin/gnu/h-i686-mingw32/bin/../lib/gcc/nios2-elf/4.1.2/../../../../nios2-elf/lib\libc.a(lib_a-mprec.o)
 .bss           0x0084e0e4        0x0 c:/altera/13.0sp1/nios2eds/bin/gnu/h-i686-mingw32/bin/../lib/gcc/nios2-elf/4.1.2/../../../../nios2-elf/lib\libc.a(lib_a-reallocr.o)
 .bss           0x0084e0e4        0x0 c:/altera/13.0sp1/nios2eds/bin/gnu/h-i686-mingw32/bin/../lib/gcc/nios2-elf/4.1.2/../../../../nios2-elf/lib\libc.a(lib_a-refill.o)
 .bss           0x0084e0e4        0x0 c:/altera/13.0sp1/nios2eds/bin/gnu/h-i686-mingw32/bin/../lib/gcc/nios2-elf/4.1.2/../../../../nios2-elf/lib\libc.a(lib_a-s_isinfd.o)
 .bss           0x0084e0e4        0x0 c:/altera/13.0sp1/nios2eds/bin/gnu/h-i686-mingw32/bin/../lib/gcc/nios2-elf/4.1.2/../../../../nios2-elf/lib\libc.a(lib_a-s_isnand.o)
 .bss           0x0084e0e4        0x0 c:/altera/13.0sp1/nios2eds/bin/gnu/h-i686-mingw32/bin/../lib/gcc/nios2-elf/4.1.2/../../../../nios2-elf/lib\libc.a(lib_a-sbrkr.o)
 .bss           0x0084e0e4        0x0 c:/altera/13.0sp1/nios2eds/bin/gnu/h-i686-mingw32/bin/../lib/gcc/nios2-elf/4.1.2/../../../../nios2-elf/lib\libc.a(lib_a-stdio.o)
 .bss           0x0084e0e4        0x0 c:/altera/13.0sp1/nios2eds/bin/gnu/h-i686-mingw32/bin/../lib/gcc/nios2-elf/4.1.2/../../../../nios2-elf/lib\libc.a(lib_a-strcmp.o)
 .bss           0x0084e0e4        0x0 c:/altera/13.0sp1/nios2eds/bin/gnu/h-i686-mingw32/bin/../lib/gcc/nios2-elf/4.1.2/../../../../nios2-elf/lib\libc.a(lib_a-writer.o)
 .bss           0x0084e0e4        0x0 c:/altera/13.0sp1/nios2eds/bin/gnu/h-i686-mingw32/bin/../lib/gcc/nios2-elf/4.1.2/../../../../nios2-elf/lib\libc.a(lib_a-callocr.o)
 .bss           0x0084e0e4        0x0 c:/altera/13.0sp1/nios2eds/bin/gnu/h-i686-mingw32/bin/../lib/gcc/nios2-elf/4.1.2/../../../../nios2-elf/lib\libc.a(lib_a-closer.o)
 .bss           0x0084e0e4        0x0 c:/altera/13.0sp1/nios2eds/bin/gnu/h-i686-mingw32/bin/../lib/gcc/nios2-elf/4.1.2/../../../../nios2-elf/lib\libc.a(lib_a-fclose.o)
 .bss           0x0084e0e4        0x0 c:/altera/13.0sp1/nios2eds/bin/gnu/h-i686-mingw32/bin/../lib/gcc/nios2-elf/4.1.2/../../../../nios2-elf/lib\libc.a(lib_a-fstatr.o)
 .bss           0x0084e0e4        0x0 c:/altera/13.0sp1/nios2eds/bin/gnu/h-i686-mingw32/bin/../lib/gcc/nios2-elf/4.1.2/../../../../nios2-elf/lib\libc.a(lib_a-int_errno.o)
 .bss           0x0084e0e4        0x0 c:/altera/13.0sp1/nios2eds/bin/gnu/h-i686-mingw32/bin/../lib/gcc/nios2-elf/4.1.2/../../../../nios2-elf/lib\libc.a(lib_a-isattyr.o)
 .bss           0x0084e0e4        0x0 c:/altera/13.0sp1/nios2eds/bin/gnu/h-i686-mingw32/bin/../lib/gcc/nios2-elf/4.1.2/../../../../nios2-elf/lib\libc.a(lib_a-lseekr.o)
 .bss           0x0084e0e4        0x0 c:/altera/13.0sp1/nios2eds/bin/gnu/h-i686-mingw32/bin/../lib/gcc/nios2-elf/4.1.2/../../../../nios2-elf/lib\libc.a(lib_a-readr.o)
 .bss           0x0084e0e4        0x0 c:/altera/13.0sp1/nios2eds/bin/gnu/h-i686-mingw32/bin/../lib/gcc/nios2-elf/4.1.2\libgcc.a(_udivdi3.o)
 .bss           0x0084e0e4        0x0 c:/altera/13.0sp1/nios2eds/bin/gnu/h-i686-mingw32/bin/../lib/gcc/nios2-elf/4.1.2\libgcc.a(_umoddi3.o)
 .bss           0x0084e0e4        0x0 c:/altera/13.0sp1/nios2eds/bin/gnu/h-i686-mingw32/bin/../lib/gcc/nios2-elf/4.1.2\libgcc.a(_div_df.o)
 .bss           0x0084e0e4        0x0 c:/altera/13.0sp1/nios2eds/bin/gnu/h-i686-mingw32/bin/../lib/gcc/nios2-elf/4.1.2\libgcc.a(_eq_df.o)
 .bss           0x0084e0e4        0x0 c:/altera/13.0sp1/nios2eds/bin/gnu/h-i686-mingw32/bin/../lib/gcc/nios2-elf/4.1.2\libgcc.a(_ne_df.o)
 .bss           0x0084e0e4        0x0 c:/altera/13.0sp1/nios2eds/bin/gnu/h-i686-mingw32/bin/../lib/gcc/nios2-elf/4.1.2\libgcc.a(_gt_df.o)
 .bss           0x0084e0e4        0x0 c:/altera/13.0sp1/nios2eds/bin/gnu/h-i686-mingw32/bin/../lib/gcc/nios2-elf/4.1.2\libgcc.a(_lt_df.o)
 .bss           0x0084e0e4        0x0 c:/altera/13.0sp1/nios2eds/bin/gnu/h-i686-mingw32/bin/../lib/gcc/nios2-elf/4.1.2\libgcc.a(_si_to_df.o)
 .bss           0x0084e0e4        0x0 c:/altera/13.0sp1/nios2eds/bin/gnu/h-i686-mingw32/bin/../lib/gcc/nios2-elf/4.1.2\libgcc.a(lib2-divmod.o)
 .bss           0x0084e0e4        0x0 ../server1_bsp/\libucosii_bsp.a(alt_exit.o)
 .bss           0x0084e0e4        0x0 ../server1_bsp/\libucosii_bsp.a(alt_flash_dev.o)
 .bss           0x0084e0e4        0x0 ../server1_bsp/\libucosii_bsp.a(alt_fstat.o)
 .bss           0x0084e0e4        0x0 ../server1_bsp/\libucosii_bsp.a(alt_irq_register.o)
 .bss           0x0084e0e4        0x0 ../server1_bsp/\libucosii_bsp.a(alt_irq_vars.o)
 .bss           0x0084e0e4        0x0 ../server1_bsp/\libucosii_bsp.a(alt_isatty.o)
 .bss           0x0084e0e4        0x0 ../server1_bsp/\libucosii_bsp.a(alt_lseek.o)
 .bss           0x0084e0e4        0x0 ../server1_bsp/\libucosii_bsp.a(alt_main.o)
 .bss           0x0084e0e4        0x0 ../server1_bsp/\libucosii_bsp.a(alt_sbrk.o)
 .bss           0x0084e0e4        0x0 ../server1_bsp/\libucosii_bsp.a(alt_usleep.o)
 .bss           0x0084e0e4        0x0 ../server1_bsp/\libucosii_bsp.a(alt_env_lock.o)
 .bss           0x0084e0e4        0x0 ../server1_bsp/\libucosii_bsp.a(alt_malloc_lock.o)
 .bss           0x0084e0e4        0x0 ../server1_bsp/\libucosii_bsp.a(os_core.o)
 .bss           0x0084e0e4        0x0 ../server1_bsp/\libucosii_bsp.a(os_dbg.o)
 .bss           0x0084e0e4        0x0 ../server1_bsp/\libucosii_bsp.a(os_flag.o)
 .bss           0x0084e0e4        0x0 ../server1_bsp/\libucosii_bsp.a(os_mem.o)
 .bss           0x0084e0e4        0x0 ../server1_bsp/\libucosii_bsp.a(os_q.o)
 .bss           0x0084e0e4        0x0 ../server1_bsp/\libucosii_bsp.a(os_sem.o)
 .bss           0x0084e0e4        0x0 ../server1_bsp/\libucosii_bsp.a(os_task.o)
 .bss           0x0084e0e4        0x0 ../server1_bsp/\libucosii_bsp.a(os_time.o)
 .bss           0x0084e0e4        0x0 ../server1_bsp/\libucosii_bsp.a(alt_sys_init.o)
 .bss           0x0084e0e4        0x0 ../server1_bsp/\libucosii_bsp.a(altera_avalon_cfi_flash.o)
 .bss           0x0084e0e4        0x0 ../server1_bsp/\libucosii_bsp.a(altera_avalon_cfi_flash_table.o)
 .bss           0x0084e0e4        0x0 ../server1_bsp/\libucosii_bsp.a(altera_avalon_epcs_flash_controller.o)
 .bss           0x0084e0e4        0x0 ../server1_bsp/\libucosii_bsp.a(altera_avalon_jtag_uart_fd.o)
 .bss           0x0084e0e4        0x0 ../server1_bsp/\libucosii_bsp.a(altera_avalon_jtag_uart_init.o)
 .bss           0x0084e0e4        0x0 ../server1_bsp/\libucosii_bsp.a(altera_avalon_jtag_uart_ioctl.o)
 .bss           0x0084e0e4        0x0 ../server1_bsp/\libucosii_bsp.a(altera_avalon_jtag_uart_read.o)
 .bss           0x0084e0e4        0x0 ../server1_bsp/\libucosii_bsp.a(altera_avalon_jtag_uart_write.o)
 .bss           0x0084e0e4        0x0 ../server1_bsp/\libucosii_bsp.a(altera_avalon_lcd_16207.o)
 .bss           0x0084e0e4        0x0 ../server1_bsp/\libucosii_bsp.a(altera_avalon_lcd_16207_fd.o)
 .bss           0x0084e0e4        0x0 ../server1_bsp/\libucosii_bsp.a(altera_avalon_timer_sc.o)
 .bss           0x0084e0e4        0x0 ../server1_bsp/\libucosii_bsp.a(altera_avalon_uart_fd.o)
 .bss           0x0084e0e4        0x0 ../server1_bsp/\libucosii_bsp.a(altera_avalon_uart_init.o)
 .bss           0x0084e0e4        0x0 ../server1_bsp/\libucosii_bsp.a(altera_avalon_uart_read.o)
 .bss           0x0084e0e4        0x0 ../server1_bsp/\libucosii_bsp.a(altera_avalon_uart_write.o)
 .bss           0x0084e0e4        0x0 ../server1_bsp/\libucosii_bsp.a(epcs_commands.o)
 .bss           0x0084e0e4        0x0 ../server1_bsp/\libucosii_bsp.a(alt_iniche_close.o)
 .bss           0x0084e0e4        0x0 ../server1_bsp/\libucosii_bsp.a(alt_iniche_dev.o)
 .bss           0x0084e0e4        0x0 ../server1_bsp/\libucosii_bsp.a(alt_iniche_read.o)
 .bss           0x0084e0e4        0x0 ../server1_bsp/\libucosii_bsp.a(alt_iniche_write.o)
 .bss           0x0084e0e4        0x0 ../server1_bsp/\libucosii_bsp.a(ipnet.o)
 .bss           0x0084e0e4       0x3c ../server1_bsp/\libucosii_bsp.a(ipstart.o)
 .bss           0x0084e120        0x0 ../server1_bsp/\libucosii_bsp.a(igmp_cmn.o)
 .bss           0x0084e120        0x0 ../server1_bsp/\libucosii_bsp.a(bsdsock.o)
 .bss           0x0084e120        0x0 ../server1_bsp/\libucosii_bsp.a(cksum.o)
 .bss           0x0084e120       0x18 ../server1_bsp/\libucosii_bsp.a(in_utils.o)
 .bss           0x0084e138        0x0 ../server1_bsp/\libucosii_bsp.a(netmain.o)
 .bss           0x0084e138       0x1e ../server1_bsp/\libucosii_bsp.a(parseip.o)
 .bss           0x0084e156        0x0 ../server1_bsp/\libucosii_bsp.a(tk_crnos.o)
 .bss           0x0084e156        0x0 ../server1_bsp/\libucosii_bsp.a(dhcpclnt.o)
 .bss           0x0084e156        0x0 ../server1_bsp/\libucosii_bsp.a(dhcputil.o)
 .bss           0x0084e156        0x0 ../server1_bsp/\libucosii_bsp.a(pktalloc.o)
 .bss           0x0084e156        0x0 ../server1_bsp/\libucosii_bsp.a(q.o)
 .bss           0x0084e156        0x0 ../server1_bsp/\libucosii_bsp.a(udp_open.o)
 .bss           0x0084e156        0x0 ../server1_bsp/\libucosii_bsp.a(asm_cksum.o)
 .bss           0x0084e156        0x0 ../server1_bsp/\libucosii_bsp.a(brdutils.o)
 .bss           0x0084e156        0x0 ../server1_bsp/\libucosii_bsp.a(osportco.o)
 .bss           0x0084e156        0x0 ../server1_bsp/\libucosii_bsp.a(targnios.o)
 .bss           0x0084e156        0x0 ../server1_bsp/\libucosii_bsp.a(nptcp.o)
 .bss           0x0084e156        0x0 ../server1_bsp/\libucosii_bsp.a(rawsock.o)
 .bss           0x0084e156        0x0 ../server1_bsp/\libucosii_bsp.a(sockcall.o)
 .bss           0x0084e156        0x0 ../server1_bsp/\libucosii_bsp.a(socket.o)
 .bss           0x0084e156        0x0 ../server1_bsp/\libucosii_bsp.a(socket2.o)
 .bss           0x0084e156        0x0 ../server1_bsp/\libucosii_bsp.a(soselect.o)
 .bss           0x0084e156        0x0 ../server1_bsp/\libucosii_bsp.a(tcp_in.o)
 .bss           0x0084e156        0x0 ../server1_bsp/\libucosii_bsp.a(tcp_out.o)
 .bss           0x0084e156        0x0 ../server1_bsp/\libucosii_bsp.a(tcp_subr.o)
 .bss           0x0084e156        0x0 ../server1_bsp/\libucosii_bsp.a(tcp_timr.o)
 .bss           0x0084e156        0x0 ../server1_bsp/\libucosii_bsp.a(tcp_usr.o)
 .bss           0x0084e156        0x0 ../server1_bsp/\libucosii_bsp.a(tcpport.o)
 .bss           0x0084e156        0x0 ../server1_bsp/\libucosii_bsp.a(udpsock.o)
 .bss           0x0084e156        0x0 ../server1_bsp/\libucosii_bsp.a(alt_alarm_start.o)
 .bss           0x0084e156        0x0 ../server1_bsp/\libucosii_bsp.a(alt_busy_sleep.o)
 .bss           0x0084e156        0x0 ../server1_bsp/\libucosii_bsp.a(alt_close.o)
 .bss           0x0084e156        0x0 ../server1_bsp/\libucosii_bsp.a(alt_dcache_flush.o)
 .bss           0x0084e156        0x0 ../server1_bsp/\libucosii_bsp.a(alt_dev.o)
 .bss           0x0084e156        0x0 ../server1_bsp/\libucosii_bsp.a(alt_dev_llist_insert.o)
 .bss           0x0084e156        0x0 ../server1_bsp/\libucosii_bsp.a(alt_do_ctors.o)
 .bss           0x0084e156        0x0 ../server1_bsp/\libucosii_bsp.a(alt_do_dtors.o)
 .bss           0x0084e156        0x0 ../server1_bsp/\libucosii_bsp.a(alt_errno.o)
 .bss           0x0084e156        0x0 ../server1_bsp/\libucosii_bsp.a(alt_find_dev.o)
 .bss           0x0084e156        0x0 ../server1_bsp/\libucosii_bsp.a(alt_iic.o)
 .bss           0x0084e156        0x0 ../server1_bsp/\libucosii_bsp.a(alt_iic_isr_register.o)
 .bss           0x0084e156        0x0 ../server1_bsp/\libucosii_bsp.a(alt_io_redirect.o)
 .bss           0x0084e156        0x0 ../server1_bsp/\libucosii_bsp.a(alt_irq_entry.o)
 .bss           0x0084e156        0x0 ../server1_bsp/\libucosii_bsp.a(alt_irq_handler.o)
 .bss           0x0084e156        0x0 ../server1_bsp/\libucosii_bsp.a(alt_open.o)
 .bss           0x0084e156        0x0 ../server1_bsp/\libucosii_bsp.a(alt_read.o)
 .bss           0x0084e156        0x0 ../server1_bsp/\libucosii_bsp.a(alt_release_fd.o)
 .bss           0x0084e156        0x0 ../server1_bsp/\libucosii_bsp.a(alt_remap_cached.o)
 .bss           0x0084e156        0x0 ../server1_bsp/\libucosii_bsp.a(alt_remap_uncached.o)
 .bss           0x0084e156        0x0 ../server1_bsp/\libucosii_bsp.a(alt_tick.o)
 .bss           0x0084e156        0x0 ../server1_bsp/\libucosii_bsp.a(alt_write.o)
 .bss           0x0084e156        0x0 ../server1_bsp/\libucosii_bsp.a(altera_nios2_qsys_irq.o)
 .bss           0x0084e156        0x0 ../server1_bsp/\libucosii_bsp.a(os_cpu_a.o)
 .bss           0x0084e156        0x0 ../server1_bsp/\libucosii_bsp.a(os_cpu_c.o)
 .bss           0x0084e156        0x0 ../server1_bsp/\libucosii_bsp.a(altera_avalon_cfi_flash_amd.o)
 .bss           0x0084e156        0x0 ../server1_bsp/\libucosii_bsp.a(altera_avalon_cfi_flash_intel.o)
 .bss           0x0084e156        0x0 ../server1_bsp/\libucosii_bsp.a(altera_avalon_spi.o)
 .bss           0x0084e156        0x0 ../server1_bsp/\libucosii_bsp.a(allports.o)
 .bss           0x0084e156        0x0 ../server1_bsp/\libucosii_bsp.a(timeouts.o)
 .bss           0x0084e156        0x0 ../server1_bsp/\libucosii_bsp.a(tk_misc.o)
 .bss           0x0084e156        0x0 ../server1_bsp/\libucosii_bsp.a(alt_iniche_fcntl.o)
 .bss           0x0084e156        0x0 ../server1_bsp/\libucosii_bsp.a(et_arp.o)
 .bss           0x0084e156        0x0 ../server1_bsp/\libucosii_bsp.a(iface.o)
 .bss           0x0084e156        0x0 ../server1_bsp/\libucosii_bsp.a(ip.o)
 .bss           0x0084e156        0x0 ../server1_bsp/\libucosii_bsp.a(ip_reasm.o)
 .bss           0x0084e156        0x0 ../server1_bsp/\libucosii_bsp.a(ipdemux.o)
 .bss           0x0084e156        0x0 ../server1_bsp/\libucosii_bsp.a(ipmc.o)
 .bss           0x0084e156        0x0 ../server1_bsp/\libucosii_bsp.a(ipport.o)
 .bss           0x0084e156        0x0 ../server1_bsp/\libucosii_bsp.a(ipraw.o)
 .bss           0x0084e156        0x0 ../server1_bsp/\libucosii_bsp.a(iproute.o)
 .bss           0x0084e156        0x0 ../server1_bsp/\libucosii_bsp.a(udp.o)
 .bss           0x0084e156        0x0 ../server1_bsp/\libucosii_bsp.a(igmp.o)
 .bss           0x0084e156        0x0 ../server1_bsp/\libucosii_bsp.a(igmp2.o)
 .bss           0x0084e156        0x0 ../server1_bsp/\libucosii_bsp.a(ipopt.o)
 .bss           0x0084e156        0x0 ../server1_bsp/\libucosii_bsp.a(u_mctest.o)
 .bss           0x0084e156        0x0 ../server1_bsp/\libucosii_bsp.a(dhcsetup.o)
 .bss           0x0084e156        0x0 ../server1_bsp/\libucosii_bsp.a(memdev.o)
 .bss           0x0084e156        0x0 ../server1_bsp/\libucosii_bsp.a(tcpcksum.o)
 .bss           0x0084e156        0x0 ../server1_bsp/\libucosii_bsp.a(in_pcb.o)
 .bss           0x0084e156        0x0 ../server1_bsp/\libucosii_bsp.a(vfsfiles.o)
 .bss           0x0084e156        0x0 ../server1_bsp/\libucosii_bsp.a(vfsport.o)
 .bss           0x0084e156        0x0 ../server1_bsp/\libucosii_bsp.a(alt_exception_entry.o)
 .bss           0x0084e156        0x0 ../server1_bsp/\libucosii_bsp.a(alt_fcntl.o)
 .bss           0x0084e156        0x0 ../server1_bsp/\libucosii_bsp.a(alt_find_file.o)
 .bss           0x0084e156        0x0 ../server1_bsp/\libucosii_bsp.a(alt_get_fd.o)
 .bss           0x0084e156        0x0 ../server1_bsp/\libucosii_bsp.a(icmp.o)
 .bss           0x0084e156        0x0 c:/altera/13.0sp1/nios2eds/bin/gnu/h-i686-mingw32/bin/../lib/gcc/nios2-elf/4.1.2/../../../../nios2-elf/lib\libc.a(lib_a-atexit.o)
 .bss           0x0084e156        0x0 c:/altera/13.0sp1/nios2eds/bin/gnu/h-i686-mingw32/bin/../lib/gcc/nios2-elf/4.1.2/../../../../nios2-elf/lib\libc.a(lib_a-atoi.o)
 .bss           0x0084e156        0x0 c:/altera/13.0sp1/nios2eds/bin/gnu/h-i686-mingw32/bin/../lib/gcc/nios2-elf/4.1.2/../../../../nios2-elf/lib\libc.a(lib_a-calloc.o)
 .bss           0x0084e156        0x0 c:/altera/13.0sp1/nios2eds/bin/gnu/h-i686-mingw32/bin/../lib/gcc/nios2-elf/4.1.2/../../../../nios2-elf/lib\libc.a(lib_a-malloc.o)
 .bss           0x0084e156        0x0 c:/altera/13.0sp1/nios2eds/bin/gnu/h-i686-mingw32/bin/../lib/gcc/nios2-elf/4.1.2/../../../../nios2-elf/lib\libc.a(lib_a-memcmp.o)
 .bss           0x0084e156        0x0 c:/altera/13.0sp1/nios2eds/bin/gnu/h-i686-mingw32/bin/../lib/gcc/nios2-elf/4.1.2/../../../../nios2-elf/lib\libc.a(lib_a-strcpy.o)
 .bss           0x0084e156        0x0 c:/altera/13.0sp1/nios2eds/bin/gnu/h-i686-mingw32/bin/../lib/gcc/nios2-elf/4.1.2/../../../../nios2-elf/lib\libc.a(lib_a-strncmp.o)
 .bss           0x0084e156        0x0 c:/altera/13.0sp1/nios2eds/bin/gnu/h-i686-mingw32/bin/../lib/gcc/nios2-elf/4.1.2/../../../../nios2-elf/lib\libc.a(lib_a-strncpy.o)
 .bss           0x0084e156        0x0 c:/altera/13.0sp1/nios2eds/bin/gnu/h-i686-mingw32/bin/../lib/gcc/nios2-elf/4.1.2/../../../../nios2-elf/lib\libc.a(lib_a-strtol.o)
 .bss           0x0084e156        0x0 c:/altera/13.0sp1/nios2eds/bin/gnu/h-i686-mingw32/bin/../lib/gcc/nios2-elf/4.1.2/../../../../nios2-elf/lib\libc.a(lib_a-vprintf.o)
 .bss           0x0084e156        0x0 c:/altera/13.0sp1/nios2eds/bin/gnu/h-i686-mingw32/bin/../lib/gcc/nios2-elf/4.1.2/../../../../nios2-elf/lib\libc.a(lib_a-vsprintf.o)
 .bss           0x0084e156        0x0 c:/altera/13.0sp1/nios2eds/bin/gnu/h-i686-mingw32/bin/../lib/gcc/nios2-elf/4.1.2/../../../../nios2-elf/lib\libc.a(lib_a-__atexit.o)
 *(COMMON)
 *fill*         0x0084e156        0x2 00
 COMMON         0x0084e158       0x44 obj/default/dm9000a.o
                0x0084e158                g_dm9ka
 COMMON         0x0084e19c     0x2000 obj/default/iniche_init.o
                0x0084e19c                SSSInitialTaskStk
 COMMON         0x0085019c     0x4078 obj/default/simple_socket_server.o
                0x0085019c                LED7SegLightshowTaskStk
                0x0085219c                SSSLEDCommandQTbl
                0x00852214                LEDManagementTaskStk
 COMMON         0x00854214     0x3224 ../server1_bsp/\libucosii_bsp.a(os_core.o)
                0x00854214                OSFlagTbl
                0x00854584                OSMemTbl
                0x008551b4                OSTaskStatStk
                0x008559b4                OSQTbl
                0x00855b94                OSTaskIdleStk
                0x00856394                OSEventTbl
                0x00856ed4                OSTCBTbl
                0x008573e4                OSTCBPrioTbl
 COMMON         0x00857438       0x14 ../server1_bsp/\libucosii_bsp.a(ipnet.o)
                0x00857438                rcvdq
 COMMON         0x0085744c      0x310 ../server1_bsp/\libucosii_bsp.a(ipstart.o)
                0x0085744c                netstatic
                0x0085774c                nets
 COMMON         0x0085775c       0x64 ../server1_bsp/\libucosii_bsp.a(igmp_cmn.o)
                0x0085775c                igmpstats
 COMMON         0x008577c0       0x24 ../server1_bsp/\libucosii_bsp.a(in_utils.o)
                0x008577c0                eth_prt_buf
                0x008577d2                ipreturn
 COMMON         0x008577e4       0xf0 ../server1_bsp/\libucosii_bsp.a(dhcpclnt.o)
                0x008577e4                dhc_states
 COMMON         0x008578d4      0x128 ../server1_bsp/\libucosii_bsp.a(pktalloc.o)
                0x008578d4                lilfreeq
                0x008578e8                memestats
                0x008578f8                pktlog
                0x008579e8                bigfreeq
 COMMON         0x008579fc      0x1ec ../server1_bsp/\libucosii_bsp.a(osportco.o)
                0x008579fc                global_tcb_ext
                0x00857af8                global_TCPwakeup_set
 COMMON         0x00857be8       0x58 ../server1_bsp/\libucosii_bsp.a(targnios.o)
                0x00857be8                resid_semaphore
                0x00857c28                app_semaphore
 COMMON         0x00857c40       0x78 ../server1_bsp/\libucosii_bsp.a(nptcp.o)
                0x00857c40                soq
                0x00857c54                tcpmib
                0x00857c90                mbufq
                0x00857ca4                mfreeq
 COMMON         0x00857cb8       0x28 ../server1_bsp/\libucosii_bsp.a(tcp_in.o)
                0x00857cb8                tcp_saveti
 COMMON         0x00857ce0      0x10c ../server1_bsp/\libucosii_bsp.a(tcp_subr.o)
                0x00857ce0                tcb
                0x00857d0c                tcpstat
 COMMON         0x00857dec      0x100 ../server1_bsp/\libucosii_bsp.a(alt_irq_handler.o)
                0x00857dec                alt_irq
 COMMON         0x00857eec       0x64 ../server1_bsp/\libucosii_bsp.a(timeouts.o)
                0x00857eec                intimers
 COMMON         0x00857f50      0x100 ../server1_bsp/\libucosii_bsp.a(et_arp.o)
                0x00857f50                arp_table
 COMMON         0x00858050       0x14 ../server1_bsp/\libucosii_bsp.a(iface.o)
                0x00858050                netlist
 COMMON         0x00858064       0x50 ../server1_bsp/\libucosii_bsp.a(ip.o)
                0x00858064                ip_mib
 COMMON         0x008580b4       0x18 ../server1_bsp/\libucosii_bsp.a(ip_reasm.o)
                0x008580b4                ire_stats
 COMMON         0x008580cc       0x10 ../server1_bsp/\libucosii_bsp.a(udp.o)
                0x008580cc                udp_mib
 COMMON         0x008580dc       0x68 ../server1_bsp/\libucosii_bsp.a(icmp.o)
                0x008580dc                icmp_mib
 COMMON         0x00858144      0x190 c:/altera/13.0sp1/nios2eds/bin/gnu/h-i686-mingw32/bin/../lib/gcc/nios2-elf/4.1.2/../../../../nios2-elf/lib\libc.a(lib_a-atexit.o)
                0x00858144                _atexit0
                0x008582d4                . = ALIGN (0x4)
                0x008582d4                __bss_end = ABSOLUTE (.)

.sdram_0        0x008582d4        0x0
                0x008582d4                PROVIDE (_alt_partition_sdram_0_start, ABSOLUTE (.))
 *(.sdram_0. sdram_0.*)
                0x008582d4                . = ALIGN (0x4)
                0x008582d4                PROVIDE (_alt_partition_sdram_0_end, ABSOLUTE (.))
                0x008582d4                _end = ABSOLUTE (.)
                0x008582d4                end = ABSOLUTE (.)
                0x008582d4                __alt_stack_base = ABSOLUTE (.)
                0x008582d4                PROVIDE (_alt_partition_sdram_0_load_addr, LOADADDR (.sdram_0))

.cfi_flash_0    0x01400020        0x0
                0x01400020                PROVIDE (_alt_partition_cfi_flash_0_start, ABSOLUTE (.))
 *(.cfi_flash_0. cfi_flash_0.*)
                0x01400020                . = ALIGN (0x4)
                0x01400020                PROVIDE (_alt_partition_cfi_flash_0_end, ABSOLUTE (.))
                0x01400020                PROVIDE (_alt_partition_cfi_flash_0_load_addr, LOADADDR (.cfi_flash_0))

.sram_0         0x01a00000        0x0
                0x01a00000                PROVIDE (_alt_partition_sram_0_start, ABSOLUTE (.))
 *(.sram_0. sram_0.*)
                0x01a00000                . = ALIGN (0x4)
                0x01a00000                PROVIDE (_alt_partition_sram_0_end, ABSOLUTE (.))
                0x01a00000                PROVIDE (_alt_partition_sram_0_load_addr, LOADADDR (.sram_0))

.epcs_controller
                0x01a81800        0x0
                0x01a81800                PROVIDE (_alt_partition_epcs_controller_start, ABSOLUTE (.))
 *(.epcs_controller. epcs_controller.*)
                0x01a81800                . = ALIGN (0x4)
                0x01a81800                PROVIDE (_alt_partition_epcs_controller_end, ABSOLUTE (.))
                0x01a81800                PROVIDE (_alt_partition_epcs_controller_load_addr, LOADADDR (.epcs_controller))

.stab
 *(.stab)

.stabstr
 *(.stabstr)

.stab.excl
 *(.stab.excl)

.stab.exclstr
 *(.stab.exclstr)

.stab.index
 *(.stab.index)

.stab.indexstr
 *(.stab.indexstr)

.comment        0x00000000       0x26
 *(.comment)
 .comment       0x00000000       0x26 obj/default/LCD.o
                                 0x27 (size before relaxing)
 .comment       0x00000000       0x27 obj/default/SSS_DE2_115.o
 .comment       0x00000000       0x27 obj/default/alt_error_handler.o
 .comment       0x00000000       0x27 obj/default/dm9000a.o
 .comment       0x00000000       0x27 obj/default/iniche_init.o
 .comment       0x00000000       0x27 obj/default/led.o
 .comment       0x00000000       0x27 obj/default/network_utilities.o
 .comment       0x00000000       0x27 obj/default/simple_socket_server.o
 .comment       0x00000000       0x27 obj/default/tse_my_system.o
 .comment       0x00000000       0x27 c:/altera/13.0sp1/nios2eds/bin/gnu/h-i686-mingw32/bin/../lib/gcc/nios2-elf/4.1.2\libgcc.a(_fixunsdfsi.o)
 .comment       0x00000000       0x27 c:/altera/13.0sp1/nios2eds/bin/gnu/h-i686-mingw32/bin/../lib/gcc/nios2-elf/4.1.2\libgcc.a(_si_to_sf.o)
 .comment       0x00000000       0x27 c:/altera/13.0sp1/nios2eds/bin/gnu/h-i686-mingw32/bin/../lib/gcc/nios2-elf/4.1.2\libgcc.a(_sf_to_si.o)
 .comment       0x00000000       0x27 c:/altera/13.0sp1/nios2eds/bin/gnu/h-i686-mingw32/bin/../lib/gcc/nios2-elf/4.1.2\libgcc.a(_usi_to_sf.o)
 .comment       0x00000000       0x27 c:/altera/13.0sp1/nios2eds/bin/gnu/h-i686-mingw32/bin/../lib/gcc/nios2-elf/4.1.2\libgcc.a(_addsub_df.o)
 .comment       0x00000000       0x27 c:/altera/13.0sp1/nios2eds/bin/gnu/h-i686-mingw32/bin/../lib/gcc/nios2-elf/4.1.2\libgcc.a(_mul_df.o)
 .comment       0x00000000       0x27 c:/altera/13.0sp1/nios2eds/bin/gnu/h-i686-mingw32/bin/../lib/gcc/nios2-elf/4.1.2\libgcc.a(_ge_df.o)
 .comment       0x00000000       0x27 c:/altera/13.0sp1/nios2eds/bin/gnu/h-i686-mingw32/bin/../lib/gcc/nios2-elf/4.1.2\libgcc.a(_df_to_si.o)
 .comment       0x00000000       0x27 c:/altera/13.0sp1/nios2eds/bin/gnu/h-i686-mingw32/bin/../lib/gcc/nios2-elf/4.1.2\libgcc.a(_thenan_df.o)
 .comment       0x00000000       0x27 c:/altera/13.0sp1/nios2eds/bin/gnu/h-i686-mingw32/bin/../lib/gcc/nios2-elf/4.1.2\libgcc.a(_usi_to_df.o)
 .comment       0x00000000       0x27 c:/altera/13.0sp1/nios2eds/bin/gnu/h-i686-mingw32/bin/../lib/gcc/nios2-elf/4.1.2\libgcc.a(_muldi3.o)
 .comment       0x00000000       0x27 c:/altera/13.0sp1/nios2eds/bin/gnu/h-i686-mingw32/bin/../lib/gcc/nios2-elf/4.1.2\libgcc.a(_clzsi2.o)
 .comment       0x00000000       0x27 c:/altera/13.0sp1/nios2eds/bin/gnu/h-i686-mingw32/bin/../lib/gcc/nios2-elf/4.1.2\libgcc.a(_pack_sf.o)
 .comment       0x00000000       0x27 c:/altera/13.0sp1/nios2eds/bin/gnu/h-i686-mingw32/bin/../lib/gcc/nios2-elf/4.1.2\libgcc.a(_unpack_sf.o)
 .comment       0x00000000       0x27 c:/altera/13.0sp1/nios2eds/bin/gnu/h-i686-mingw32/bin/../lib/gcc/nios2-elf/4.1.2\libgcc.a(_pack_df.o)
 .comment       0x00000000       0x27 c:/altera/13.0sp1/nios2eds/bin/gnu/h-i686-mingw32/bin/../lib/gcc/nios2-elf/4.1.2\libgcc.a(_unpack_df.o)
 .comment       0x00000000       0x27 c:/altera/13.0sp1/nios2eds/bin/gnu/h-i686-mingw32/bin/../lib/gcc/nios2-elf/4.1.2\libgcc.a(_fpcmp_parts_df.o)
 .comment       0x00000000       0x27 c:/altera/13.0sp1/nios2eds/bin/gnu/h-i686-mingw32/bin/../lib/gcc/nios2-elf/4.1.2\libgcc.a(_clz.o)
 .comment       0x00000000       0x27 c:/altera/13.0sp1/nios2eds/bin/gnu/h-i686-mingw32/bin/../lib/gcc/nios2-elf/4.1.2/../../../../nios2-elf/lib\libc.a(lib_a-ctype_.o)
 .comment       0x00000000       0x27 c:/altera/13.0sp1/nios2eds/bin/gnu/h-i686-mingw32/bin/../lib/gcc/nios2-elf/4.1.2/../../../../nios2-elf/lib\libc.a(lib_a-exit.o)
 .comment       0x00000000       0x27 c:/altera/13.0sp1/nios2eds/bin/gnu/h-i686-mingw32/bin/../lib/gcc/nios2-elf/4.1.2/../../../../nios2-elf/lib\libc.a(lib_a-fprintf.o)
 .comment       0x00000000       0x27 c:/altera/13.0sp1/nios2eds/bin/gnu/h-i686-mingw32/bin/../lib/gcc/nios2-elf/4.1.2/../../../../nios2-elf/lib\libc.a(lib_a-fwrite.o)
 .comment       0x00000000       0x27 c:/altera/13.0sp1/nios2eds/bin/gnu/h-i686-mingw32/bin/../lib/gcc/nios2-elf/4.1.2/../../../../nios2-elf/lib\libc.a(lib_a-getc.o)
 .comment       0x00000000       0x27 c:/altera/13.0sp1/nios2eds/bin/gnu/h-i686-mingw32/bin/../lib/gcc/nios2-elf/4.1.2/../../../../nios2-elf/lib\libc.a(lib_a-impure.o)
 .comment       0x00000000       0x27 c:/altera/13.0sp1/nios2eds/bin/gnu/h-i686-mingw32/bin/../lib/gcc/nios2-elf/4.1.2/../../../../nios2-elf/lib\libc.a(lib_a-memcpy.o)
 .comment       0x00000000       0x27 c:/altera/13.0sp1/nios2eds/bin/gnu/h-i686-mingw32/bin/../lib/gcc/nios2-elf/4.1.2/../../../../nios2-elf/lib\libc.a(lib_a-memmove.o)
 .comment       0x00000000       0x27 c:/altera/13.0sp1/nios2eds/bin/gnu/h-i686-mingw32/bin/../lib/gcc/nios2-elf/4.1.2/../../../../nios2-elf/lib\libc.a(lib_a-memset.o)
 .comment       0x00000000       0x27 c:/altera/13.0sp1/nios2eds/bin/gnu/h-i686-mingw32/bin/../lib/gcc/nios2-elf/4.1.2/../../../../nios2-elf/lib\libc.a(lib_a-perror.o)
 .comment       0x00000000       0x27 c:/altera/13.0sp1/nios2eds/bin/gnu/h-i686-mingw32/bin/../lib/gcc/nios2-elf/4.1.2/../../../../nios2-elf/lib\libc.a(lib_a-printf.o)
 .comment       0x00000000       0x27 c:/altera/13.0sp1/nios2eds/bin/gnu/h-i686-mingw32/bin/../lib/gcc/nios2-elf/4.1.2/../../../../nios2-elf/lib\libc.a(lib_a-putc.o)
 .comment       0x00000000       0x27 c:/altera/13.0sp1/nios2eds/bin/gnu/h-i686-mingw32/bin/../lib/gcc/nios2-elf/4.1.2/../../../../nios2-elf/lib\libc.a(lib_a-putchar.o)
 .comment       0x00000000       0x27 c:/altera/13.0sp1/nios2eds/bin/gnu/h-i686-mingw32/bin/../lib/gcc/nios2-elf/4.1.2/../../../../nios2-elf/lib\libc.a(lib_a-puts.o)
 .comment       0x00000000       0x27 c:/altera/13.0sp1/nios2eds/bin/gnu/h-i686-mingw32/bin/../lib/gcc/nios2-elf/4.1.2/../../../../nios2-elf/lib\libc.a(lib_a-rget.o)
 .comment       0x00000000       0x27 c:/altera/13.0sp1/nios2eds/bin/gnu/h-i686-mingw32/bin/../lib/gcc/nios2-elf/4.1.2/../../../../nios2-elf/lib\libc.a(lib_a-sprintf.o)
 .comment       0x00000000       0x27 c:/altera/13.0sp1/nios2eds/bin/gnu/h-i686-mingw32/bin/../lib/gcc/nios2-elf/4.1.2/../../../../nios2-elf/lib\libc.a(lib_a-strchr.o)
 .comment       0x00000000       0x27 c:/altera/13.0sp1/nios2eds/bin/gnu/h-i686-mingw32/bin/../lib/gcc/nios2-elf/4.1.2/../../../../nios2-elf/lib\libc.a(lib_a-strerror.o)
 .comment       0x00000000       0x27 c:/altera/13.0sp1/nios2eds/bin/gnu/h-i686-mingw32/bin/../lib/gcc/nios2-elf/4.1.2/../../../../nios2-elf/lib\libc.a(lib_a-strlen.o)
 .comment       0x00000000       0x27 c:/altera/13.0sp1/nios2eds/bin/gnu/h-i686-mingw32/bin/../lib/gcc/nios2-elf/4.1.2/../../../../nios2-elf/lib\libc.a(lib_a-u_strerr.o)
 .comment       0x00000000       0x27 c:/altera/13.0sp1/nios2eds/bin/gnu/h-i686-mingw32/bin/../lib/gcc/nios2-elf/4.1.2/../../../../nios2-elf/lib\libc.a(lib_a-vfprintf.o)
 .comment       0x00000000       0x27 c:/altera/13.0sp1/nios2eds/bin/gnu/h-i686-mingw32/bin/../lib/gcc/nios2-elf/4.1.2/../../../../nios2-elf/lib\libc.a(lib_a-wbuf.o)
 .comment       0x00000000       0x27 c:/altera/13.0sp1/nios2eds/bin/gnu/h-i686-mingw32/bin/../lib/gcc/nios2-elf/4.1.2/../../../../nios2-elf/lib\libc.a(lib_a-wsetup.o)
 .comment       0x00000000       0x27 c:/altera/13.0sp1/nios2eds/bin/gnu/h-i686-mingw32/bin/../lib/gcc/nios2-elf/4.1.2/../../../../nios2-elf/lib\libc.a(lib_a-__call_atexit.o)
 .comment       0x00000000       0x27 c:/altera/13.0sp1/nios2eds/bin/gnu/h-i686-mingw32/bin/../lib/gcc/nios2-elf/4.1.2/../../../../nios2-elf/lib\libc.a(lib_a-dtoa.o)
 .comment       0x00000000       0x27 c:/altera/13.0sp1/nios2eds/bin/gnu/h-i686-mingw32/bin/../lib/gcc/nios2-elf/4.1.2/../../../../nios2-elf/lib\libc.a(lib_a-fflush.o)
 .comment       0x00000000       0x27 c:/altera/13.0sp1/nios2eds/bin/gnu/h-i686-mingw32/bin/../lib/gcc/nios2-elf/4.1.2/../../../../nios2-elf/lib\libc.a(lib_a-findfp.o)
 .comment       0x00000000       0x27 c:/altera/13.0sp1/nios2eds/bin/gnu/h-i686-mingw32/bin/../lib/gcc/nios2-elf/4.1.2/../../../../nios2-elf/lib\libc.a(lib_a-fputc.o)
 .comment       0x00000000       0x27 c:/altera/13.0sp1/nios2eds/bin/gnu/h-i686-mingw32/bin/../lib/gcc/nios2-elf/4.1.2/../../../../nios2-elf/lib\libc.a(lib_a-fputs.o)
 .comment       0x00000000       0x27 c:/altera/13.0sp1/nios2eds/bin/gnu/h-i686-mingw32/bin/../lib/gcc/nios2-elf/4.1.2/../../../../nios2-elf/lib\libc.a(lib_a-freer.o)
 .comment       0x00000000       0x27 c:/altera/13.0sp1/nios2eds/bin/gnu/h-i686-mingw32/bin/../lib/gcc/nios2-elf/4.1.2/../../../../nios2-elf/lib\libc.a(lib_a-fvwrite.o)
 .comment       0x00000000       0x27 c:/altera/13.0sp1/nios2eds/bin/gnu/h-i686-mingw32/bin/../lib/gcc/nios2-elf/4.1.2/../../../../nios2-elf/lib\libc.a(lib_a-fwalk.o)
 .comment       0x00000000       0x27 c:/altera/13.0sp1/nios2eds/bin/gnu/h-i686-mingw32/bin/../lib/gcc/nios2-elf/4.1.2/../../../../nios2-elf/lib\libc.a(lib_a-locale.o)
 .comment       0x00000000       0x27 c:/altera/13.0sp1/nios2eds/bin/gnu/h-i686-mingw32/bin/../lib/gcc/nios2-elf/4.1.2/../../../../nios2-elf/lib\libc.a(lib_a-makebuf.o)
 .comment       0x00000000       0x27 c:/altera/13.0sp1/nios2eds/bin/gnu/h-i686-mingw32/bin/../lib/gcc/nios2-elf/4.1.2/../../../../nios2-elf/lib\libc.a(lib_a-mallocr.o)
 .comment       0x00000000       0x27 c:/altera/13.0sp1/nios2eds/bin/gnu/h-i686-mingw32/bin/../lib/gcc/nios2-elf/4.1.2/../../../../nios2-elf/lib\libc.a(lib_a-memchr.o)
 .comment       0x00000000       0x27 c:/altera/13.0sp1/nios2eds/bin/gnu/h-i686-mingw32/bin/../lib/gcc/nios2-elf/4.1.2/../../../../nios2-elf/lib\libc.a(lib_a-mprec.o)
 .comment       0x00000000       0x27 c:/altera/13.0sp1/nios2eds/bin/gnu/h-i686-mingw32/bin/../lib/gcc/nios2-elf/4.1.2/../../../../nios2-elf/lib\libc.a(lib_a-reallocr.o)
 .comment       0x00000000       0x27 c:/altera/13.0sp1/nios2eds/bin/gnu/h-i686-mingw32/bin/../lib/gcc/nios2-elf/4.1.2/../../../../nios2-elf/lib\libc.a(lib_a-refill.o)
 .comment       0x00000000       0x27 c:/altera/13.0sp1/nios2eds/bin/gnu/h-i686-mingw32/bin/../lib/gcc/nios2-elf/4.1.2/../../../../nios2-elf/lib\libc.a(lib_a-s_isinfd.o)
 .comment       0x00000000       0x27 c:/altera/13.0sp1/nios2eds/bin/gnu/h-i686-mingw32/bin/../lib/gcc/nios2-elf/4.1.2/../../../../nios2-elf/lib\libc.a(lib_a-s_isnand.o)
 .comment       0x00000000       0x27 c:/altera/13.0sp1/nios2eds/bin/gnu/h-i686-mingw32/bin/../lib/gcc/nios2-elf/4.1.2/../../../../nios2-elf/lib\libc.a(lib_a-sbrkr.o)
 .comment       0x00000000       0x27 c:/altera/13.0sp1/nios2eds/bin/gnu/h-i686-mingw32/bin/../lib/gcc/nios2-elf/4.1.2/../../../../nios2-elf/lib\libc.a(lib_a-stdio.o)
 .comment       0x00000000       0x27 c:/altera/13.0sp1/nios2eds/bin/gnu/h-i686-mingw32/bin/../lib/gcc/nios2-elf/4.1.2/../../../../nios2-elf/lib\libc.a(lib_a-strcmp.o)
 .comment       0x00000000       0x27 c:/altera/13.0sp1/nios2eds/bin/gnu/h-i686-mingw32/bin/../lib/gcc/nios2-elf/4.1.2/../../../../nios2-elf/lib\libc.a(lib_a-writer.o)
 .comment       0x00000000       0x27 c:/altera/13.0sp1/nios2eds/bin/gnu/h-i686-mingw32/bin/../lib/gcc/nios2-elf/4.1.2/../../../../nios2-elf/lib\libc.a(lib_a-callocr.o)
 .comment       0x00000000       0x27 c:/altera/13.0sp1/nios2eds/bin/gnu/h-i686-mingw32/bin/../lib/gcc/nios2-elf/4.1.2/../../../../nios2-elf/lib\libc.a(lib_a-closer.o)
 .comment       0x00000000       0x27 c:/altera/13.0sp1/nios2eds/bin/gnu/h-i686-mingw32/bin/../lib/gcc/nios2-elf/4.1.2/../../../../nios2-elf/lib\libc.a(lib_a-fclose.o)
 .comment       0x00000000       0x27 c:/altera/13.0sp1/nios2eds/bin/gnu/h-i686-mingw32/bin/../lib/gcc/nios2-elf/4.1.2/../../../../nios2-elf/lib\libc.a(lib_a-fstatr.o)
 .comment       0x00000000       0x27 c:/altera/13.0sp1/nios2eds/bin/gnu/h-i686-mingw32/bin/../lib/gcc/nios2-elf/4.1.2/../../../../nios2-elf/lib\libc.a(lib_a-int_errno.o)
 .comment       0x00000000       0x27 c:/altera/13.0sp1/nios2eds/bin/gnu/h-i686-mingw32/bin/../lib/gcc/nios2-elf/4.1.2/../../../../nios2-elf/lib\libc.a(lib_a-isattyr.o)
 .comment       0x00000000       0x27 c:/altera/13.0sp1/nios2eds/bin/gnu/h-i686-mingw32/bin/../lib/gcc/nios2-elf/4.1.2/../../../../nios2-elf/lib\libc.a(lib_a-lseekr.o)
 .comment       0x00000000       0x27 c:/altera/13.0sp1/nios2eds/bin/gnu/h-i686-mingw32/bin/../lib/gcc/nios2-elf/4.1.2/../../../../nios2-elf/lib\libc.a(lib_a-readr.o)
 .comment       0x00000000       0x27 c:/altera/13.0sp1/nios2eds/bin/gnu/h-i686-mingw32/bin/../lib/gcc/nios2-elf/4.1.2\libgcc.a(_udivdi3.o)
 .comment       0x00000000       0x27 c:/altera/13.0sp1/nios2eds/bin/gnu/h-i686-mingw32/bin/../lib/gcc/nios2-elf/4.1.2\libgcc.a(_umoddi3.o)
 .comment       0x00000000       0x27 c:/altera/13.0sp1/nios2eds/bin/gnu/h-i686-mingw32/bin/../lib/gcc/nios2-elf/4.1.2\libgcc.a(_div_df.o)
 .comment       0x00000000       0x27 c:/altera/13.0sp1/nios2eds/bin/gnu/h-i686-mingw32/bin/../lib/gcc/nios2-elf/4.1.2\libgcc.a(_eq_df.o)
 .comment       0x00000000       0x27 c:/altera/13.0sp1/nios2eds/bin/gnu/h-i686-mingw32/bin/../lib/gcc/nios2-elf/4.1.2\libgcc.a(_ne_df.o)
 .comment       0x00000000       0x27 c:/altera/13.0sp1/nios2eds/bin/gnu/h-i686-mingw32/bin/../lib/gcc/nios2-elf/4.1.2\libgcc.a(_gt_df.o)
 .comment       0x00000000       0x27 c:/altera/13.0sp1/nios2eds/bin/gnu/h-i686-mingw32/bin/../lib/gcc/nios2-elf/4.1.2\libgcc.a(_lt_df.o)
 .comment       0x00000000       0x27 c:/altera/13.0sp1/nios2eds/bin/gnu/h-i686-mingw32/bin/../lib/gcc/nios2-elf/4.1.2\libgcc.a(_si_to_df.o)
 .comment       0x00000000       0x27 c:/altera/13.0sp1/nios2eds/bin/gnu/h-i686-mingw32/bin/../lib/gcc/nios2-elf/4.1.2\libgcc.a(lib2-divmod.o)
 .comment       0x00000000       0x27 ../server1_bsp/\libucosii_bsp.a(alt_exit.o)
 .comment       0x00000000       0x27 ../server1_bsp/\libucosii_bsp.a(alt_flash_dev.o)
 .comment       0x00000000       0x27 ../server1_bsp/\libucosii_bsp.a(alt_fstat.o)
 .comment       0x00000000       0x27 ../server1_bsp/\libucosii_bsp.a(alt_irq_register.o)
 .comment       0x00000000       0x27 ../server1_bsp/\libucosii_bsp.a(alt_irq_vars.o)
 .comment       0x00000000       0x27 ../server1_bsp/\libucosii_bsp.a(alt_isatty.o)
 .comment       0x00000000       0x27 ../server1_bsp/\libucosii_bsp.a(alt_lseek.o)
 .comment       0x00000000       0x27 ../server1_bsp/\libucosii_bsp.a(alt_main.o)
 .comment       0x00000000       0x27 ../server1_bsp/\libucosii_bsp.a(alt_sbrk.o)
 .comment       0x00000000       0x27 ../server1_bsp/\libucosii_bsp.a(alt_usleep.o)
 .comment       0x00000000       0x27 ../server1_bsp/\libucosii_bsp.a(alt_env_lock.o)
 .comment       0x00000000       0x27 ../server1_bsp/\libucosii_bsp.a(alt_malloc_lock.o)
 .comment       0x00000000       0x27 ../server1_bsp/\libucosii_bsp.a(os_core.o)
 .comment       0x00000000       0x27 ../server1_bsp/\libucosii_bsp.a(os_dbg.o)
 .comment       0x00000000       0x27 ../server1_bsp/\libucosii_bsp.a(os_flag.o)
 .comment       0x00000000       0x27 ../server1_bsp/\libucosii_bsp.a(os_mem.o)
 .comment       0x00000000       0x27 ../server1_bsp/\libucosii_bsp.a(os_q.o)
 .comment       0x00000000       0x27 ../server1_bsp/\libucosii_bsp.a(os_sem.o)
 .comment       0x00000000       0x27 ../server1_bsp/\libucosii_bsp.a(os_task.o)
 .comment       0x00000000       0x27 ../server1_bsp/\libucosii_bsp.a(os_time.o)
 .comment       0x00000000       0x27 ../server1_bsp/\libucosii_bsp.a(alt_sys_init.o)
 .comment       0x00000000       0x27 ../server1_bsp/\libucosii_bsp.a(altera_avalon_cfi_flash.o)
 .comment       0x00000000       0x27 ../server1_bsp/\libucosii_bsp.a(altera_avalon_cfi_flash_table.o)
 .comment       0x00000000       0x27 ../server1_bsp/\libucosii_bsp.a(altera_avalon_epcs_flash_controller.o)
 .comment       0x00000000       0x27 ../server1_bsp/\libucosii_bsp.a(altera_avalon_jtag_uart_fd.o)
 .comment       0x00000000       0x27 ../server1_bsp/\libucosii_bsp.a(altera_avalon_jtag_uart_init.o)
 .comment       0x00000000       0x27 ../server1_bsp/\libucosii_bsp.a(altera_avalon_jtag_uart_ioctl.o)
 .comment       0x00000000       0x27 ../server1_bsp/\libucosii_bsp.a(altera_avalon_jtag_uart_read.o)
 .comment       0x00000000       0x27 ../server1_bsp/\libucosii_bsp.a(altera_avalon_jtag_uart_write.o)
 .comment       0x00000000       0x27 ../server1_bsp/\libucosii_bsp.a(altera_avalon_lcd_16207.o)
 .comment       0x00000000       0x27 ../server1_bsp/\libucosii_bsp.a(altera_avalon_lcd_16207_fd.o)
 .comment       0x00000000       0x27 ../server1_bsp/\libucosii_bsp.a(altera_avalon_timer_sc.o)
 .comment       0x00000000       0x27 ../server1_bsp/\libucosii_bsp.a(altera_avalon_uart_fd.o)
 .comment       0x00000000       0x27 ../server1_bsp/\libucosii_bsp.a(altera_avalon_uart_init.o)
 .comment       0x00000000       0x27 ../server1_bsp/\libucosii_bsp.a(altera_avalon_uart_read.o)
 .comment       0x00000000       0x27 ../server1_bsp/\libucosii_bsp.a(altera_avalon_uart_write.o)
 .comment       0x00000000       0x27 ../server1_bsp/\libucosii_bsp.a(epcs_commands.o)
 .comment       0x00000000       0x27 ../server1_bsp/\libucosii_bsp.a(alt_iniche_close.o)
 .comment       0x00000000       0x27 ../server1_bsp/\libucosii_bsp.a(alt_iniche_dev.o)
 .comment       0x00000000       0x27 ../server1_bsp/\libucosii_bsp.a(alt_iniche_read.o)
 .comment       0x00000000       0x27 ../server1_bsp/\libucosii_bsp.a(alt_iniche_write.o)
 .comment       0x00000000       0x27 ../server1_bsp/\libucosii_bsp.a(ipnet.o)
 .comment       0x00000000       0x27 ../server1_bsp/\libucosii_bsp.a(ipstart.o)
 .comment       0x00000000       0x27 ../server1_bsp/\libucosii_bsp.a(igmp_cmn.o)
 .comment       0x00000000       0x27 ../server1_bsp/\libucosii_bsp.a(bsdsock.o)
 .comment       0x00000000       0x27 ../server1_bsp/\libucosii_bsp.a(cksum.o)
 .comment       0x00000000       0x27 ../server1_bsp/\libucosii_bsp.a(in_utils.o)
 .comment       0x00000000       0x27 ../server1_bsp/\libucosii_bsp.a(netmain.o)
 .comment       0x00000000       0x27 ../server1_bsp/\libucosii_bsp.a(parseip.o)
 .comment       0x00000000       0x27 ../server1_bsp/\libucosii_bsp.a(tk_crnos.o)
 .comment       0x00000000       0x27 ../server1_bsp/\libucosii_bsp.a(dhcpclnt.o)
 .comment       0x00000000       0x27 ../server1_bsp/\libucosii_bsp.a(dhcputil.o)
 .comment       0x00000000       0x27 ../server1_bsp/\libucosii_bsp.a(pktalloc.o)
 .comment       0x00000000       0x27 ../server1_bsp/\libucosii_bsp.a(q.o)
 .comment       0x00000000       0x27 ../server1_bsp/\libucosii_bsp.a(udp_open.o)
 .comment       0x00000000       0x27 ../server1_bsp/\libucosii_bsp.a(brdutils.o)
 .comment       0x00000000       0x27 ../server1_bsp/\libucosii_bsp.a(osportco.o)
 .comment       0x00000000       0x27 ../server1_bsp/\libucosii_bsp.a(targnios.o)
 .comment       0x00000000       0x27 ../server1_bsp/\libucosii_bsp.a(nptcp.o)
 .comment       0x00000000       0x27 ../server1_bsp/\libucosii_bsp.a(rawsock.o)
 .comment       0x00000000       0x27 ../server1_bsp/\libucosii_bsp.a(sockcall.o)
 .comment       0x00000000       0x27 ../server1_bsp/\libucosii_bsp.a(socket.o)
 .comment       0x00000000       0x27 ../server1_bsp/\libucosii_bsp.a(socket2.o)
 .comment       0x00000000       0x27 ../server1_bsp/\libucosii_bsp.a(soselect.o)
 .comment       0x00000000       0x27 ../server1_bsp/\libucosii_bsp.a(tcp_in.o)
 .comment       0x00000000       0x27 ../server1_bsp/\libucosii_bsp.a(tcp_out.o)
 .comment       0x00000000       0x27 ../server1_bsp/\libucosii_bsp.a(tcp_subr.o)
 .comment       0x00000000       0x27 ../server1_bsp/\libucosii_bsp.a(tcp_timr.o)
 .comment       0x00000000       0x27 ../server1_bsp/\libucosii_bsp.a(tcp_usr.o)
 .comment       0x00000000       0x27 ../server1_bsp/\libucosii_bsp.a(tcpport.o)
 .comment       0x00000000       0x27 ../server1_bsp/\libucosii_bsp.a(udpsock.o)
 .comment       0x00000000       0x27 ../server1_bsp/\libucosii_bsp.a(alt_alarm_start.o)
 .comment       0x00000000       0x27 ../server1_bsp/\libucosii_bsp.a(alt_busy_sleep.o)
 .comment       0x00000000       0x27 ../server1_bsp/\libucosii_bsp.a(alt_close.o)
 .comment       0x00000000       0x27 ../server1_bsp/\libucosii_bsp.a(alt_dcache_flush.o)
 .comment       0x00000000       0x27 ../server1_bsp/\libucosii_bsp.a(alt_dev.o)
 .comment       0x00000000       0x27 ../server1_bsp/\libucosii_bsp.a(alt_dev_llist_insert.o)
 .comment       0x00000000       0x27 ../server1_bsp/\libucosii_bsp.a(alt_do_ctors.o)
 .comment       0x00000000       0x27 ../server1_bsp/\libucosii_bsp.a(alt_do_dtors.o)
 .comment       0x00000000       0x27 ../server1_bsp/\libucosii_bsp.a(alt_errno.o)
 .comment       0x00000000       0x27 ../server1_bsp/\libucosii_bsp.a(alt_find_dev.o)
 .comment       0x00000000       0x27 ../server1_bsp/\libucosii_bsp.a(alt_iic.o)
 .comment       0x00000000       0x27 ../server1_bsp/\libucosii_bsp.a(alt_iic_isr_register.o)
 .comment       0x00000000       0x27 ../server1_bsp/\libucosii_bsp.a(alt_io_redirect.o)
 .comment       0x00000000       0x27 ../server1_bsp/\libucosii_bsp.a(alt_irq_handler.o)
 .comment       0x00000000       0x27 ../server1_bsp/\libucosii_bsp.a(alt_open.o)
 .comment       0x00000000       0x27 ../server1_bsp/\libucosii_bsp.a(alt_read.o)
 .comment       0x00000000       0x27 ../server1_bsp/\libucosii_bsp.a(alt_release_fd.o)
 .comment       0x00000000       0x27 ../server1_bsp/\libucosii_bsp.a(alt_remap_cached.o)
 .comment       0x00000000       0x27 ../server1_bsp/\libucosii_bsp.a(alt_remap_uncached.o)
 .comment       0x00000000       0x27 ../server1_bsp/\libucosii_bsp.a(alt_tick.o)
 .comment       0x00000000       0x27 ../server1_bsp/\libucosii_bsp.a(alt_write.o)
 .comment       0x00000000       0x27 ../server1_bsp/\libucosii_bsp.a(altera_nios2_qsys_irq.o)
 .comment       0x00000000       0x27 ../server1_bsp/\libucosii_bsp.a(os_cpu_c.o)
 .comment       0x00000000       0x27 ../server1_bsp/\libucosii_bsp.a(altera_avalon_cfi_flash_amd.o)
 .comment       0x00000000       0x27 ../server1_bsp/\libucosii_bsp.a(altera_avalon_cfi_flash_intel.o)
 .comment       0x00000000       0x27 ../server1_bsp/\libucosii_bsp.a(altera_avalon_spi.o)
 .comment       0x00000000       0x27 ../server1_bsp/\libucosii_bsp.a(allports.o)
 .comment       0x00000000       0x27 ../server1_bsp/\libucosii_bsp.a(timeouts.o)
 .comment       0x00000000       0x27 ../server1_bsp/\libucosii_bsp.a(tk_misc.o)
 .comment       0x00000000       0x27 ../server1_bsp/\libucosii_bsp.a(alt_iniche_fcntl.o)
 .comment       0x00000000       0x27 ../server1_bsp/\libucosii_bsp.a(et_arp.o)
 .comment       0x00000000       0x27 ../server1_bsp/\libucosii_bsp.a(iface.o)
 .comment       0x00000000       0x27 ../server1_bsp/\libucosii_bsp.a(ip.o)
 .comment       0x00000000       0x27 ../server1_bsp/\libucosii_bsp.a(ip_reasm.o)
 .comment       0x00000000       0x27 ../server1_bsp/\libucosii_bsp.a(ipdemux.o)
 .comment       0x00000000       0x27 ../server1_bsp/\libucosii_bsp.a(ipmc.o)
 .comment       0x00000000       0x27 ../server1_bsp/\libucosii_bsp.a(ipport.o)
 .comment       0x00000000       0x27 ../server1_bsp/\libucosii_bsp.a(ipraw.o)
 .comment       0x00000000       0x27 ../server1_bsp/\libucosii_bsp.a(iproute.o)
 .comment       0x00000000       0x27 ../server1_bsp/\libucosii_bsp.a(udp.o)
 .comment       0x00000000       0x27 ../server1_bsp/\libucosii_bsp.a(igmp.o)
 .comment       0x00000000       0x27 ../server1_bsp/\libucosii_bsp.a(igmp2.o)
 .comment       0x00000000       0x27 ../server1_bsp/\libucosii_bsp.a(ipopt.o)
 .comment       0x00000000       0x27 ../server1_bsp/\libucosii_bsp.a(u_mctest.o)
 .comment       0x00000000       0x27 ../server1_bsp/\libucosii_bsp.a(dhcsetup.o)
 .comment       0x00000000       0x27 ../server1_bsp/\libucosii_bsp.a(memdev.o)
 .comment       0x00000000       0x27 ../server1_bsp/\libucosii_bsp.a(tcpcksum.o)
 .comment       0x00000000       0x27 ../server1_bsp/\libucosii_bsp.a(in_pcb.o)
 .comment       0x00000000       0x27 ../server1_bsp/\libucosii_bsp.a(vfsfiles.o)
 .comment       0x00000000       0x27 ../server1_bsp/\libucosii_bsp.a(vfsport.o)
 .comment       0x00000000       0x27 ../server1_bsp/\libucosii_bsp.a(alt_fcntl.o)
 .comment       0x00000000       0x27 ../server1_bsp/\libucosii_bsp.a(alt_find_file.o)
 .comment       0x00000000       0x27 ../server1_bsp/\libucosii_bsp.a(alt_get_fd.o)
 .comment       0x00000000       0x27 ../server1_bsp/\libucosii_bsp.a(icmp.o)
 .comment       0x00000000       0x27 c:/altera/13.0sp1/nios2eds/bin/gnu/h-i686-mingw32/bin/../lib/gcc/nios2-elf/4.1.2/../../../../nios2-elf/lib\libc.a(lib_a-atexit.o)
 .comment       0x00000000       0x27 c:/altera/13.0sp1/nios2eds/bin/gnu/h-i686-mingw32/bin/../lib/gcc/nios2-elf/4.1.2/../../../../nios2-elf/lib\libc.a(lib_a-atoi.o)
 .comment       0x00000000       0x27 c:/altera/13.0sp1/nios2eds/bin/gnu/h-i686-mingw32/bin/../lib/gcc/nios2-elf/4.1.2/../../../../nios2-elf/lib\libc.a(lib_a-calloc.o)
 .comment       0x00000000       0x27 c:/altera/13.0sp1/nios2eds/bin/gnu/h-i686-mingw32/bin/../lib/gcc/nios2-elf/4.1.2/../../../../nios2-elf/lib\libc.a(lib_a-malloc.o)
 .comment       0x00000000       0x27 c:/altera/13.0sp1/nios2eds/bin/gnu/h-i686-mingw32/bin/../lib/gcc/nios2-elf/4.1.2/../../../../nios2-elf/lib\libc.a(lib_a-memcmp.o)
 .comment       0x00000000       0x27 c:/altera/13.0sp1/nios2eds/bin/gnu/h-i686-mingw32/bin/../lib/gcc/nios2-elf/4.1.2/../../../../nios2-elf/lib\libc.a(lib_a-strcpy.o)
 .comment       0x00000000       0x27 c:/altera/13.0sp1/nios2eds/bin/gnu/h-i686-mingw32/bin/../lib/gcc/nios2-elf/4.1.2/../../../../nios2-elf/lib\libc.a(lib_a-strncmp.o)
 .comment       0x00000000       0x27 c:/altera/13.0sp1/nios2eds/bin/gnu/h-i686-mingw32/bin/../lib/gcc/nios2-elf/4.1.2/../../../../nios2-elf/lib\libc.a(lib_a-strncpy.o)
 .comment       0x00000000       0x27 c:/altera/13.0sp1/nios2eds/bin/gnu/h-i686-mingw32/bin/../lib/gcc/nios2-elf/4.1.2/../../../../nios2-elf/lib\libc.a(lib_a-strtol.o)
 .comment       0x00000000       0x27 c:/altera/13.0sp1/nios2eds/bin/gnu/h-i686-mingw32/bin/../lib/gcc/nios2-elf/4.1.2/../../../../nios2-elf/lib\libc.a(lib_a-vprintf.o)
 .comment       0x00000000       0x27 c:/altera/13.0sp1/nios2eds/bin/gnu/h-i686-mingw32/bin/../lib/gcc/nios2-elf/4.1.2/../../../../nios2-elf/lib\libc.a(lib_a-vsprintf.o)
 .comment       0x00000000       0x27 c:/altera/13.0sp1/nios2eds/bin/gnu/h-i686-mingw32/bin/../lib/gcc/nios2-elf/4.1.2/../../../../nios2-elf/lib\libc.a(lib_a-__atexit.o)

.debug
 *(.debug)

.line
 *(.line)

.debug_srcinfo
 *(.debug_srcinfo)

.debug_sfnames
 *(.debug_sfnames)

.debug_aranges  0x00000000     0x1c10
 *(.debug_aranges)
 .debug_aranges
                0x00000000       0x20 ../server1_bsp//obj/HAL/src/crt0.o
 .debug_aranges
                0x00000020       0x20 obj/default/LCD.o
 .debug_aranges
                0x00000040       0x20 obj/default/SSS_DE2_115.o
 .debug_aranges
                0x00000060       0x20 obj/default/alt_error_handler.o
 .debug_aranges
                0x00000080       0x20 obj/default/dm9000a.o
 .debug_aranges
                0x000000a0       0x20 obj/default/iniche_init.o
 .debug_aranges
                0x000000c0       0x20 obj/default/led.o
 .debug_aranges
                0x000000e0       0x20 obj/default/network_utilities.o
 .debug_aranges
                0x00000100       0x20 obj/default/simple_socket_server.o
 .debug_aranges
                0x00000120       0x20 c:/altera/13.0sp1/nios2eds/bin/gnu/h-i686-mingw32/bin/../lib/gcc/nios2-elf/4.1.2\libgcc.a(_fixunsdfsi.o)
 .debug_aranges
                0x00000140       0x20 c:/altera/13.0sp1/nios2eds/bin/gnu/h-i686-mingw32/bin/../lib/gcc/nios2-elf/4.1.2\libgcc.a(_si_to_sf.o)
 .debug_aranges
                0x00000160       0x20 c:/altera/13.0sp1/nios2eds/bin/gnu/h-i686-mingw32/bin/../lib/gcc/nios2-elf/4.1.2\libgcc.a(_sf_to_si.o)
 .debug_aranges
                0x00000180       0x20 c:/altera/13.0sp1/nios2eds/bin/gnu/h-i686-mingw32/bin/../lib/gcc/nios2-elf/4.1.2\libgcc.a(_usi_to_sf.o)
 .debug_aranges
                0x000001a0       0x20 c:/altera/13.0sp1/nios2eds/bin/gnu/h-i686-mingw32/bin/../lib/gcc/nios2-elf/4.1.2\libgcc.a(_addsub_df.o)
 .debug_aranges
                0x000001c0       0x20 c:/altera/13.0sp1/nios2eds/bin/gnu/h-i686-mingw32/bin/../lib/gcc/nios2-elf/4.1.2\libgcc.a(_mul_df.o)
 .debug_aranges
                0x000001e0       0x20 c:/altera/13.0sp1/nios2eds/bin/gnu/h-i686-mingw32/bin/../lib/gcc/nios2-elf/4.1.2\libgcc.a(_ge_df.o)
 .debug_aranges
                0x00000200       0x20 c:/altera/13.0sp1/nios2eds/bin/gnu/h-i686-mingw32/bin/../lib/gcc/nios2-elf/4.1.2\libgcc.a(_df_to_si.o)
 .debug_aranges
                0x00000220       0x20 c:/altera/13.0sp1/nios2eds/bin/gnu/h-i686-mingw32/bin/../lib/gcc/nios2-elf/4.1.2\libgcc.a(_usi_to_df.o)
 .debug_aranges
                0x00000240       0x20 c:/altera/13.0sp1/nios2eds/bin/gnu/h-i686-mingw32/bin/../lib/gcc/nios2-elf/4.1.2\libgcc.a(_muldi3.o)
 .debug_aranges
                0x00000260       0x20 c:/altera/13.0sp1/nios2eds/bin/gnu/h-i686-mingw32/bin/../lib/gcc/nios2-elf/4.1.2\libgcc.a(_clzsi2.o)
 .debug_aranges
                0x00000280       0x20 c:/altera/13.0sp1/nios2eds/bin/gnu/h-i686-mingw32/bin/../lib/gcc/nios2-elf/4.1.2\libgcc.a(_pack_sf.o)
 .debug_aranges
                0x000002a0       0x20 c:/altera/13.0sp1/nios2eds/bin/gnu/h-i686-mingw32/bin/../lib/gcc/nios2-elf/4.1.2\libgcc.a(_unpack_sf.o)
 .debug_aranges
                0x000002c0       0x20 c:/altera/13.0sp1/nios2eds/bin/gnu/h-i686-mingw32/bin/../lib/gcc/nios2-elf/4.1.2\libgcc.a(_pack_df.o)
 .debug_aranges
                0x000002e0       0x20 c:/altera/13.0sp1/nios2eds/bin/gnu/h-i686-mingw32/bin/../lib/gcc/nios2-elf/4.1.2\libgcc.a(_unpack_df.o)
 .debug_aranges
                0x00000300       0x20 c:/altera/13.0sp1/nios2eds/bin/gnu/h-i686-mingw32/bin/../lib/gcc/nios2-elf/4.1.2\libgcc.a(_fpcmp_parts_df.o)
 .debug_aranges
                0x00000320       0x20 c:/altera/13.0sp1/nios2eds/bin/gnu/h-i686-mingw32/bin/../lib/gcc/nios2-elf/4.1.2/../../../../nios2-elf/lib\libc.a(lib_a-exit.o)
 .debug_aranges
                0x00000340       0x20 c:/altera/13.0sp1/nios2eds/bin/gnu/h-i686-mingw32/bin/../lib/gcc/nios2-elf/4.1.2/../../../../nios2-elf/lib\libc.a(lib_a-fprintf.o)
 .debug_aranges
                0x00000360       0x20 c:/altera/13.0sp1/nios2eds/bin/gnu/h-i686-mingw32/bin/../lib/gcc/nios2-elf/4.1.2/../../../../nios2-elf/lib\libc.a(lib_a-fwrite.o)
 .debug_aranges
                0x00000380       0x20 c:/altera/13.0sp1/nios2eds/bin/gnu/h-i686-mingw32/bin/../lib/gcc/nios2-elf/4.1.2/../../../../nios2-elf/lib\libc.a(lib_a-getc.o)
 .debug_aranges
                0x000003a0       0x20 c:/altera/13.0sp1/nios2eds/bin/gnu/h-i686-mingw32/bin/../lib/gcc/nios2-elf/4.1.2/../../../../nios2-elf/lib\libc.a(lib_a-memcpy.o)
 .debug_aranges
                0x000003c0       0x20 c:/altera/13.0sp1/nios2eds/bin/gnu/h-i686-mingw32/bin/../lib/gcc/nios2-elf/4.1.2/../../../../nios2-elf/lib\libc.a(lib_a-memmove.o)
 .debug_aranges
                0x000003e0       0x20 c:/altera/13.0sp1/nios2eds/bin/gnu/h-i686-mingw32/bin/../lib/gcc/nios2-elf/4.1.2/../../../../nios2-elf/lib\libc.a(lib_a-memset.o)
 .debug_aranges
                0x00000400       0x20 c:/altera/13.0sp1/nios2eds/bin/gnu/h-i686-mingw32/bin/../lib/gcc/nios2-elf/4.1.2/../../../../nios2-elf/lib\libc.a(lib_a-perror.o)
 .debug_aranges
                0x00000420       0x20 c:/altera/13.0sp1/nios2eds/bin/gnu/h-i686-mingw32/bin/../lib/gcc/nios2-elf/4.1.2/../../../../nios2-elf/lib\libc.a(lib_a-printf.o)
 .debug_aranges
                0x00000440       0x20 c:/altera/13.0sp1/nios2eds/bin/gnu/h-i686-mingw32/bin/../lib/gcc/nios2-elf/4.1.2/../../../../nios2-elf/lib\libc.a(lib_a-putc.o)
 .debug_aranges
                0x00000460       0x20 c:/altera/13.0sp1/nios2eds/bin/gnu/h-i686-mingw32/bin/../lib/gcc/nios2-elf/4.1.2/../../../../nios2-elf/lib\libc.a(lib_a-putchar.o)
 .debug_aranges
                0x00000480       0x20 c:/altera/13.0sp1/nios2eds/bin/gnu/h-i686-mingw32/bin/../lib/gcc/nios2-elf/4.1.2/../../../../nios2-elf/lib\libc.a(lib_a-puts.o)
 .debug_aranges
                0x000004a0       0x20 c:/altera/13.0sp1/nios2eds/bin/gnu/h-i686-mingw32/bin/../lib/gcc/nios2-elf/4.1.2/../../../../nios2-elf/lib\libc.a(lib_a-rget.o)
 .debug_aranges
                0x000004c0       0x20 c:/altera/13.0sp1/nios2eds/bin/gnu/h-i686-mingw32/bin/../lib/gcc/nios2-elf/4.1.2/../../../../nios2-elf/lib\libc.a(lib_a-sprintf.o)
 .debug_aranges
                0x000004e0       0x20 c:/altera/13.0sp1/nios2eds/bin/gnu/h-i686-mingw32/bin/../lib/gcc/nios2-elf/4.1.2/../../../../nios2-elf/lib\libc.a(lib_a-strchr.o)
 .debug_aranges
                0x00000500       0x20 c:/altera/13.0sp1/nios2eds/bin/gnu/h-i686-mingw32/bin/../lib/gcc/nios2-elf/4.1.2/../../../../nios2-elf/lib\libc.a(lib_a-strerror.o)
 .debug_aranges
                0x00000520       0x20 c:/altera/13.0sp1/nios2eds/bin/gnu/h-i686-mingw32/bin/../lib/gcc/nios2-elf/4.1.2/../../../../nios2-elf/lib\libc.a(lib_a-strlen.o)
 .debug_aranges
                0x00000540       0x20 c:/altera/13.0sp1/nios2eds/bin/gnu/h-i686-mingw32/bin/../lib/gcc/nios2-elf/4.1.2/../../../../nios2-elf/lib\libc.a(lib_a-u_strerr.o)
 .debug_aranges
                0x00000560       0x20 c:/altera/13.0sp1/nios2eds/bin/gnu/h-i686-mingw32/bin/../lib/gcc/nios2-elf/4.1.2/../../../../nios2-elf/lib\libc.a(lib_a-vfprintf.o)
 .debug_aranges
                0x00000580       0x20 c:/altera/13.0sp1/nios2eds/bin/gnu/h-i686-mingw32/bin/../lib/gcc/nios2-elf/4.1.2/../../../../nios2-elf/lib\libc.a(lib_a-wbuf.o)
 .debug_aranges
                0x000005a0       0x20 c:/altera/13.0sp1/nios2eds/bin/gnu/h-i686-mingw32/bin/../lib/gcc/nios2-elf/4.1.2/../../../../nios2-elf/lib\libc.a(lib_a-wsetup.o)
 .debug_aranges
                0x000005c0       0x20 c:/altera/13.0sp1/nios2eds/bin/gnu/h-i686-mingw32/bin/../lib/gcc/nios2-elf/4.1.2/../../../../nios2-elf/lib\libc.a(lib_a-__call_atexit.o)
 .debug_aranges
                0x000005e0       0x20 c:/altera/13.0sp1/nios2eds/bin/gnu/h-i686-mingw32/bin/../lib/gcc/nios2-elf/4.1.2/../../../../nios2-elf/lib\libc.a(lib_a-dtoa.o)
 .debug_aranges
                0x00000600       0x20 c:/altera/13.0sp1/nios2eds/bin/gnu/h-i686-mingw32/bin/../lib/gcc/nios2-elf/4.1.2/../../../../nios2-elf/lib\libc.a(lib_a-fflush.o)
 .debug_aranges
                0x00000620       0x20 c:/altera/13.0sp1/nios2eds/bin/gnu/h-i686-mingw32/bin/../lib/gcc/nios2-elf/4.1.2/../../../../nios2-elf/lib\libc.a(lib_a-findfp.o)
 .debug_aranges
                0x00000640       0x20 c:/altera/13.0sp1/nios2eds/bin/gnu/h-i686-mingw32/bin/../lib/gcc/nios2-elf/4.1.2/../../../../nios2-elf/lib\libc.a(lib_a-fputc.o)
 .debug_aranges
                0x00000660       0x20 c:/altera/13.0sp1/nios2eds/bin/gnu/h-i686-mingw32/bin/../lib/gcc/nios2-elf/4.1.2/../../../../nios2-elf/lib\libc.a(lib_a-fputs.o)
 .debug_aranges
                0x00000680       0x20 c:/altera/13.0sp1/nios2eds/bin/gnu/h-i686-mingw32/bin/../lib/gcc/nios2-elf/4.1.2/../../../../nios2-elf/lib\libc.a(lib_a-freer.o)
 .debug_aranges
                0x000006a0       0x20 c:/altera/13.0sp1/nios2eds/bin/gnu/h-i686-mingw32/bin/../lib/gcc/nios2-elf/4.1.2/../../../../nios2-elf/lib\libc.a(lib_a-fvwrite.o)
 .debug_aranges
                0x000006c0       0x20 c:/altera/13.0sp1/nios2eds/bin/gnu/h-i686-mingw32/bin/../lib/gcc/nios2-elf/4.1.2/../../../../nios2-elf/lib\libc.a(lib_a-fwalk.o)
 .debug_aranges
                0x000006e0       0x20 c:/altera/13.0sp1/nios2eds/bin/gnu/h-i686-mingw32/bin/../lib/gcc/nios2-elf/4.1.2/../../../../nios2-elf/lib\libc.a(lib_a-locale.o)
 .debug_aranges
                0x00000700       0x20 c:/altera/13.0sp1/nios2eds/bin/gnu/h-i686-mingw32/bin/../lib/gcc/nios2-elf/4.1.2/../../../../nios2-elf/lib\libc.a(lib_a-makebuf.o)
 .debug_aranges
                0x00000720       0x20 c:/altera/13.0sp1/nios2eds/bin/gnu/h-i686-mingw32/bin/../lib/gcc/nios2-elf/4.1.2/../../../../nios2-elf/lib\libc.a(lib_a-mallocr.o)
 .debug_aranges
                0x00000740       0x20 c:/altera/13.0sp1/nios2eds/bin/gnu/h-i686-mingw32/bin/../lib/gcc/nios2-elf/4.1.2/../../../../nios2-elf/lib\libc.a(lib_a-memchr.o)
 .debug_aranges
                0x00000760       0x20 c:/altera/13.0sp1/nios2eds/bin/gnu/h-i686-mingw32/bin/../lib/gcc/nios2-elf/4.1.2/../../../../nios2-elf/lib\libc.a(lib_a-mprec.o)
 .debug_aranges
                0x00000780       0x20 c:/altera/13.0sp1/nios2eds/bin/gnu/h-i686-mingw32/bin/../lib/gcc/nios2-elf/4.1.2/../../../../nios2-elf/lib\libc.a(lib_a-reallocr.o)
 .debug_aranges
                0x000007a0       0x20 c:/altera/13.0sp1/nios2eds/bin/gnu/h-i686-mingw32/bin/../lib/gcc/nios2-elf/4.1.2/../../../../nios2-elf/lib\libc.a(lib_a-refill.o)
 .debug_aranges
                0x000007c0       0x20 c:/altera/13.0sp1/nios2eds/bin/gnu/h-i686-mingw32/bin/../lib/gcc/nios2-elf/4.1.2/../../../../nios2-elf/lib\libc.a(lib_a-s_isinfd.o)
 .debug_aranges
                0x000007e0       0x20 c:/altera/13.0sp1/nios2eds/bin/gnu/h-i686-mingw32/bin/../lib/gcc/nios2-elf/4.1.2/../../../../nios2-elf/lib\libc.a(lib_a-s_isnand.o)
 .debug_aranges
                0x00000800       0x20 c:/altera/13.0sp1/nios2eds/bin/gnu/h-i686-mingw32/bin/../lib/gcc/nios2-elf/4.1.2/../../../../nios2-elf/lib\libc.a(lib_a-sbrkr.o)
 .debug_aranges
                0x00000820       0x20 c:/altera/13.0sp1/nios2eds/bin/gnu/h-i686-mingw32/bin/../lib/gcc/nios2-elf/4.1.2/../../../../nios2-elf/lib\libc.a(lib_a-stdio.o)
 .debug_aranges
                0x00000840       0x20 c:/altera/13.0sp1/nios2eds/bin/gnu/h-i686-mingw32/bin/../lib/gcc/nios2-elf/4.1.2/../../../../nios2-elf/lib\libc.a(lib_a-strcmp.o)
 .debug_aranges
                0x00000860       0x20 c:/altera/13.0sp1/nios2eds/bin/gnu/h-i686-mingw32/bin/../lib/gcc/nios2-elf/4.1.2/../../../../nios2-elf/lib\libc.a(lib_a-writer.o)
 .debug_aranges
                0x00000880       0x20 c:/altera/13.0sp1/nios2eds/bin/gnu/h-i686-mingw32/bin/../lib/gcc/nios2-elf/4.1.2/../../../../nios2-elf/lib\libc.a(lib_a-callocr.o)
 .debug_aranges
                0x000008a0       0x20 c:/altera/13.0sp1/nios2eds/bin/gnu/h-i686-mingw32/bin/../lib/gcc/nios2-elf/4.1.2/../../../../nios2-elf/lib\libc.a(lib_a-closer.o)
 .debug_aranges
                0x000008c0       0x20 c:/altera/13.0sp1/nios2eds/bin/gnu/h-i686-mingw32/bin/../lib/gcc/nios2-elf/4.1.2/../../../../nios2-elf/lib\libc.a(lib_a-fclose.o)
 .debug_aranges
                0x000008e0       0x20 c:/altera/13.0sp1/nios2eds/bin/gnu/h-i686-mingw32/bin/../lib/gcc/nios2-elf/4.1.2/../../../../nios2-elf/lib\libc.a(lib_a-fstatr.o)
 .debug_aranges
                0x00000900       0x20 c:/altera/13.0sp1/nios2eds/bin/gnu/h-i686-mingw32/bin/../lib/gcc/nios2-elf/4.1.2/../../../../nios2-elf/lib\libc.a(lib_a-isattyr.o)
 .debug_aranges
                0x00000920       0x20 c:/altera/13.0sp1/nios2eds/bin/gnu/h-i686-mingw32/bin/../lib/gcc/nios2-elf/4.1.2/../../../../nios2-elf/lib\libc.a(lib_a-lseekr.o)
 .debug_aranges
                0x00000940       0x20 c:/altera/13.0sp1/nios2eds/bin/gnu/h-i686-mingw32/bin/../lib/gcc/nios2-elf/4.1.2/../../../../nios2-elf/lib\libc.a(lib_a-readr.o)
 .debug_aranges
                0x00000960       0x20 c:/altera/13.0sp1/nios2eds/bin/gnu/h-i686-mingw32/bin/../lib/gcc/nios2-elf/4.1.2\libgcc.a(_udivdi3.o)
 .debug_aranges
                0x00000980       0x20 c:/altera/13.0sp1/nios2eds/bin/gnu/h-i686-mingw32/bin/../lib/gcc/nios2-elf/4.1.2\libgcc.a(_umoddi3.o)
 .debug_aranges
                0x000009a0       0x20 c:/altera/13.0sp1/nios2eds/bin/gnu/h-i686-mingw32/bin/../lib/gcc/nios2-elf/4.1.2\libgcc.a(_div_df.o)
 .debug_aranges
                0x000009c0       0x20 c:/altera/13.0sp1/nios2eds/bin/gnu/h-i686-mingw32/bin/../lib/gcc/nios2-elf/4.1.2\libgcc.a(_eq_df.o)
 .debug_aranges
                0x000009e0       0x20 c:/altera/13.0sp1/nios2eds/bin/gnu/h-i686-mingw32/bin/../lib/gcc/nios2-elf/4.1.2\libgcc.a(_ne_df.o)
 .debug_aranges
                0x00000a00       0x20 c:/altera/13.0sp1/nios2eds/bin/gnu/h-i686-mingw32/bin/../lib/gcc/nios2-elf/4.1.2\libgcc.a(_gt_df.o)
 .debug_aranges
                0x00000a20       0x20 c:/altera/13.0sp1/nios2eds/bin/gnu/h-i686-mingw32/bin/../lib/gcc/nios2-elf/4.1.2\libgcc.a(_lt_df.o)
 .debug_aranges
                0x00000a40       0x20 c:/altera/13.0sp1/nios2eds/bin/gnu/h-i686-mingw32/bin/../lib/gcc/nios2-elf/4.1.2\libgcc.a(_si_to_df.o)
 .debug_aranges
                0x00000a60       0x20 c:/altera/13.0sp1/nios2eds/bin/gnu/h-i686-mingw32/bin/../lib/gcc/nios2-elf/4.1.2\libgcc.a(lib2-divmod.o)
 .debug_aranges
                0x00000a80       0x20 ../server1_bsp/\libucosii_bsp.a(alt_exit.o)
 .debug_aranges
                0x00000aa0       0x20 ../server1_bsp/\libucosii_bsp.a(alt_flash_dev.o)
 .debug_aranges
                0x00000ac0       0x20 ../server1_bsp/\libucosii_bsp.a(alt_fstat.o)
 .debug_aranges
                0x00000ae0       0x20 ../server1_bsp/\libucosii_bsp.a(alt_irq_register.o)
 .debug_aranges
                0x00000b00       0x20 ../server1_bsp/\libucosii_bsp.a(alt_isatty.o)
 .debug_aranges
                0x00000b20       0x20 ../server1_bsp/\libucosii_bsp.a(alt_lseek.o)
 .debug_aranges
                0x00000b40       0x20 ../server1_bsp/\libucosii_bsp.a(alt_main.o)
 .debug_aranges
                0x00000b60       0x20 ../server1_bsp/\libucosii_bsp.a(alt_sbrk.o)
 .debug_aranges
                0x00000b80       0x20 ../server1_bsp/\libucosii_bsp.a(alt_usleep.o)
 .debug_aranges
                0x00000ba0       0x20 ../server1_bsp/\libucosii_bsp.a(alt_env_lock.o)
 .debug_aranges
                0x00000bc0       0x20 ../server1_bsp/\libucosii_bsp.a(alt_malloc_lock.o)
 .debug_aranges
                0x00000be0       0x20 ../server1_bsp/\libucosii_bsp.a(os_core.o)
 .debug_aranges
                0x00000c00       0x20 ../server1_bsp/\libucosii_bsp.a(os_dbg.o)
 .debug_aranges
                0x00000c20       0x20 ../server1_bsp/\libucosii_bsp.a(os_flag.o)
 .debug_aranges
                0x00000c40       0x20 ../server1_bsp/\libucosii_bsp.a(os_mem.o)
 .debug_aranges
                0x00000c60       0x20 ../server1_bsp/\libucosii_bsp.a(os_q.o)
 .debug_aranges
                0x00000c80       0x20 ../server1_bsp/\libucosii_bsp.a(os_sem.o)
 .debug_aranges
                0x00000ca0       0x20 ../server1_bsp/\libucosii_bsp.a(os_task.o)
 .debug_aranges
                0x00000cc0       0x20 ../server1_bsp/\libucosii_bsp.a(os_time.o)
 .debug_aranges
                0x00000ce0       0x20 ../server1_bsp/\libucosii_bsp.a(alt_sys_init.o)
 .debug_aranges
                0x00000d00       0x20 ../server1_bsp/\libucosii_bsp.a(altera_avalon_cfi_flash.o)
 .debug_aranges
                0x00000d20       0x20 ../server1_bsp/\libucosii_bsp.a(altera_avalon_cfi_flash_table.o)
 .debug_aranges
                0x00000d40       0x20 ../server1_bsp/\libucosii_bsp.a(altera_avalon_epcs_flash_controller.o)
 .debug_aranges
                0x00000d60       0x20 ../server1_bsp/\libucosii_bsp.a(altera_avalon_jtag_uart_fd.o)
 .debug_aranges
                0x00000d80       0x20 ../server1_bsp/\libucosii_bsp.a(altera_avalon_jtag_uart_init.o)
 .debug_aranges
                0x00000da0       0x20 ../server1_bsp/\libucosii_bsp.a(altera_avalon_jtag_uart_ioctl.o)
 .debug_aranges
                0x00000dc0       0x20 ../server1_bsp/\libucosii_bsp.a(altera_avalon_jtag_uart_read.o)
 .debug_aranges
                0x00000de0       0x20 ../server1_bsp/\libucosii_bsp.a(altera_avalon_jtag_uart_write.o)
 .debug_aranges
                0x00000e00       0x20 ../server1_bsp/\libucosii_bsp.a(altera_avalon_lcd_16207.o)
 .debug_aranges
                0x00000e20       0x20 ../server1_bsp/\libucosii_bsp.a(altera_avalon_lcd_16207_fd.o)
 .debug_aranges
                0x00000e40       0x20 ../server1_bsp/\libucosii_bsp.a(altera_avalon_timer_sc.o)
 .debug_aranges
                0x00000e60       0x20 ../server1_bsp/\libucosii_bsp.a(altera_avalon_uart_fd.o)
 .debug_aranges
                0x00000e80       0x20 ../server1_bsp/\libucosii_bsp.a(altera_avalon_uart_init.o)
 .debug_aranges
                0x00000ea0       0x20 ../server1_bsp/\libucosii_bsp.a(altera_avalon_uart_read.o)
 .debug_aranges
                0x00000ec0       0x20 ../server1_bsp/\libucosii_bsp.a(altera_avalon_uart_write.o)
 .debug_aranges
                0x00000ee0       0x20 ../server1_bsp/\libucosii_bsp.a(epcs_commands.o)
 .debug_aranges
                0x00000f00       0x20 ../server1_bsp/\libucosii_bsp.a(alt_iniche_close.o)
 .debug_aranges
                0x00000f20       0x20 ../server1_bsp/\libucosii_bsp.a(alt_iniche_dev.o)
 .debug_aranges
                0x00000f40       0x20 ../server1_bsp/\libucosii_bsp.a(alt_iniche_read.o)
 .debug_aranges
                0x00000f60       0x20 ../server1_bsp/\libucosii_bsp.a(alt_iniche_write.o)
 .debug_aranges
                0x00000f80       0x20 ../server1_bsp/\libucosii_bsp.a(ipnet.o)
 .debug_aranges
                0x00000fa0       0x20 ../server1_bsp/\libucosii_bsp.a(ipstart.o)
 .debug_aranges
                0x00000fc0       0x20 ../server1_bsp/\libucosii_bsp.a(igmp_cmn.o)
 .debug_aranges
                0x00000fe0       0x20 ../server1_bsp/\libucosii_bsp.a(bsdsock.o)
 .debug_aranges
                0x00001000       0x20 ../server1_bsp/\libucosii_bsp.a(cksum.o)
 .debug_aranges
                0x00001020       0x20 ../server1_bsp/\libucosii_bsp.a(in_utils.o)
 .debug_aranges
                0x00001040       0x20 ../server1_bsp/\libucosii_bsp.a(netmain.o)
 .debug_aranges
                0x00001060       0x20 ../server1_bsp/\libucosii_bsp.a(parseip.o)
 .debug_aranges
                0x00001080       0x20 ../server1_bsp/\libucosii_bsp.a(tk_crnos.o)
 .debug_aranges
                0x000010a0       0x20 ../server1_bsp/\libucosii_bsp.a(dhcpclnt.o)
 .debug_aranges
                0x000010c0       0x20 ../server1_bsp/\libucosii_bsp.a(dhcputil.o)
 .debug_aranges
                0x000010e0       0x20 ../server1_bsp/\libucosii_bsp.a(pktalloc.o)
 .debug_aranges
                0x00001100       0x20 ../server1_bsp/\libucosii_bsp.a(q.o)
 .debug_aranges
                0x00001120       0x20 ../server1_bsp/\libucosii_bsp.a(udp_open.o)
 .debug_aranges
                0x00001140       0x20 ../server1_bsp/\libucosii_bsp.a(asm_cksum.o)
 .debug_aranges
                0x00001160       0x20 ../server1_bsp/\libucosii_bsp.a(brdutils.o)
 .debug_aranges
                0x00001180       0x20 ../server1_bsp/\libucosii_bsp.a(osportco.o)
 .debug_aranges
                0x000011a0       0x20 ../server1_bsp/\libucosii_bsp.a(targnios.o)
 .debug_aranges
                0x000011c0       0x20 ../server1_bsp/\libucosii_bsp.a(nptcp.o)
 .debug_aranges
                0x000011e0       0x20 ../server1_bsp/\libucosii_bsp.a(rawsock.o)
 .debug_aranges
                0x00001200       0x20 ../server1_bsp/\libucosii_bsp.a(sockcall.o)
 .debug_aranges
                0x00001220       0x20 ../server1_bsp/\libucosii_bsp.a(socket.o)
 .debug_aranges
                0x00001240       0x20 ../server1_bsp/\libucosii_bsp.a(socket2.o)
 .debug_aranges
                0x00001260       0x20 ../server1_bsp/\libucosii_bsp.a(soselect.o)
 .debug_aranges
                0x00001280       0x20 ../server1_bsp/\libucosii_bsp.a(tcp_in.o)
 .debug_aranges
                0x000012a0       0x20 ../server1_bsp/\libucosii_bsp.a(tcp_out.o)
 .debug_aranges
                0x000012c0       0x20 ../server1_bsp/\libucosii_bsp.a(tcp_subr.o)
 .debug_aranges
                0x000012e0       0x20 ../server1_bsp/\libucosii_bsp.a(tcp_timr.o)
 .debug_aranges
                0x00001300       0x20 ../server1_bsp/\libucosii_bsp.a(tcp_usr.o)
 .debug_aranges
                0x00001320       0x20 ../server1_bsp/\libucosii_bsp.a(tcpport.o)
 .debug_aranges
                0x00001340       0x20 ../server1_bsp/\libucosii_bsp.a(udpsock.o)
 .debug_aranges
                0x00001360       0x20 ../server1_bsp/\libucosii_bsp.a(alt_alarm_start.o)
 .debug_aranges
                0x00001380       0x20 ../server1_bsp/\libucosii_bsp.a(alt_busy_sleep.o)
 .debug_aranges
                0x000013a0       0x20 ../server1_bsp/\libucosii_bsp.a(alt_close.o)
 .debug_aranges
                0x000013c0       0x20 ../server1_bsp/\libucosii_bsp.a(alt_dcache_flush.o)
 .debug_aranges
                0x000013e0       0x20 ../server1_bsp/\libucosii_bsp.a(alt_dev.o)
 .debug_aranges
                0x00001400       0x20 ../server1_bsp/\libucosii_bsp.a(alt_dev_llist_insert.o)
 .debug_aranges
                0x00001420       0x20 ../server1_bsp/\libucosii_bsp.a(alt_do_ctors.o)
 .debug_aranges
                0x00001440       0x20 ../server1_bsp/\libucosii_bsp.a(alt_do_dtors.o)
 .debug_aranges
                0x00001460       0x20 ../server1_bsp/\libucosii_bsp.a(alt_find_dev.o)
 .debug_aranges
                0x00001480       0x20 ../server1_bsp/\libucosii_bsp.a(alt_iic.o)
 .debug_aranges
                0x000014a0       0x20 ../server1_bsp/\libucosii_bsp.a(alt_iic_isr_register.o)
 .debug_aranges
                0x000014c0       0x20 ../server1_bsp/\libucosii_bsp.a(alt_io_redirect.o)
 .debug_aranges
                0x000014e0       0x30 ../server1_bsp/\libucosii_bsp.a(alt_irq_entry.o)
 .debug_aranges
                0x00001510       0x28 ../server1_bsp/\libucosii_bsp.a(alt_irq_handler.o)
 .debug_aranges
                0x00001538       0x20 ../server1_bsp/\libucosii_bsp.a(alt_open.o)
 .debug_aranges
                0x00001558       0x20 ../server1_bsp/\libucosii_bsp.a(alt_read.o)
 .debug_aranges
                0x00001578       0x20 ../server1_bsp/\libucosii_bsp.a(alt_release_fd.o)
 .debug_aranges
                0x00001598       0x20 ../server1_bsp/\libucosii_bsp.a(alt_remap_cached.o)
 .debug_aranges
                0x000015b8       0x20 ../server1_bsp/\libucosii_bsp.a(alt_remap_uncached.o)
 .debug_aranges
                0x000015d8       0x20 ../server1_bsp/\libucosii_bsp.a(alt_tick.o)
 .debug_aranges
                0x000015f8       0x20 ../server1_bsp/\libucosii_bsp.a(alt_write.o)
 .debug_aranges
                0x00001618       0x20 ../server1_bsp/\libucosii_bsp.a(altera_nios2_qsys_irq.o)
 .debug_aranges
                0x00001638       0x20 ../server1_bsp/\libucosii_bsp.a(os_cpu_a.o)
 .debug_aranges
                0x00001658       0x20 ../server1_bsp/\libucosii_bsp.a(os_cpu_c.o)
 .debug_aranges
                0x00001678       0x20 ../server1_bsp/\libucosii_bsp.a(altera_avalon_cfi_flash_amd.o)
 .debug_aranges
                0x00001698       0x20 ../server1_bsp/\libucosii_bsp.a(altera_avalon_cfi_flash_intel.o)
 .debug_aranges
                0x000016b8       0x20 ../server1_bsp/\libucosii_bsp.a(altera_avalon_spi.o)
 .debug_aranges
                0x000016d8       0x20 ../server1_bsp/\libucosii_bsp.a(allports.o)
 .debug_aranges
                0x000016f8       0x20 ../server1_bsp/\libucosii_bsp.a(timeouts.o)
 .debug_aranges
                0x00001718       0x20 ../server1_bsp/\libucosii_bsp.a(tk_misc.o)
 .debug_aranges
                0x00001738       0x20 ../server1_bsp/\libucosii_bsp.a(alt_iniche_fcntl.o)
 .debug_aranges
                0x00001758       0x20 ../server1_bsp/\libucosii_bsp.a(et_arp.o)
 .debug_aranges
                0x00001778       0x20 ../server1_bsp/\libucosii_bsp.a(iface.o)
 .debug_aranges
                0x00001798       0x20 ../server1_bsp/\libucosii_bsp.a(ip.o)
 .debug_aranges
                0x000017b8       0x20 ../server1_bsp/\libucosii_bsp.a(ip_reasm.o)
 .debug_aranges
                0x000017d8       0x20 ../server1_bsp/\libucosii_bsp.a(ipdemux.o)
 .debug_aranges
                0x000017f8       0x20 ../server1_bsp/\libucosii_bsp.a(ipmc.o)
 .debug_aranges
                0x00001818       0x20 ../server1_bsp/\libucosii_bsp.a(ipport.o)
 .debug_aranges
                0x00001838       0x20 ../server1_bsp/\libucosii_bsp.a(ipraw.o)
 .debug_aranges
                0x00001858       0x20 ../server1_bsp/\libucosii_bsp.a(iproute.o)
 .debug_aranges
                0x00001878       0x20 ../server1_bsp/\libucosii_bsp.a(udp.o)
 .debug_aranges
                0x00001898       0x20 ../server1_bsp/\libucosii_bsp.a(igmp.o)
 .debug_aranges
                0x000018b8       0x20 ../server1_bsp/\libucosii_bsp.a(igmp2.o)
 .debug_aranges
                0x000018d8       0x20 ../server1_bsp/\libucosii_bsp.a(ipopt.o)
 .debug_aranges
                0x000018f8       0x20 ../server1_bsp/\libucosii_bsp.a(u_mctest.o)
 .debug_aranges
                0x00001918       0x20 ../server1_bsp/\libucosii_bsp.a(dhcsetup.o)
 .debug_aranges
                0x00001938       0x20 ../server1_bsp/\libucosii_bsp.a(memdev.o)
 .debug_aranges
                0x00001958       0x20 ../server1_bsp/\libucosii_bsp.a(tcpcksum.o)
 .debug_aranges
                0x00001978       0x20 ../server1_bsp/\libucosii_bsp.a(in_pcb.o)
 .debug_aranges
                0x00001998       0x20 ../server1_bsp/\libucosii_bsp.a(vfsfiles.o)
 .debug_aranges
                0x000019b8       0x20 ../server1_bsp/\libucosii_bsp.a(vfsport.o)
 .debug_aranges
                0x000019d8       0x38 ../server1_bsp/\libucosii_bsp.a(alt_exception_entry.o)
 .debug_aranges
                0x00001a10       0x20 ../server1_bsp/\libucosii_bsp.a(alt_fcntl.o)
 .debug_aranges
                0x00001a30       0x20 ../server1_bsp/\libucosii_bsp.a(alt_find_file.o)
 .debug_aranges
                0x00001a50       0x20 ../server1_bsp/\libucosii_bsp.a(alt_get_fd.o)
 .debug_aranges
                0x00001a70       0x20 ../server1_bsp/\libucosii_bsp.a(icmp.o)
 .debug_aranges
                0x00001a90       0x20 c:/altera/13.0sp1/nios2eds/bin/gnu/h-i686-mingw32/bin/../lib/gcc/nios2-elf/4.1.2/../../../../nios2-elf/lib\libc.a(lib_a-atexit.o)
 .debug_aranges
                0x00001ab0       0x20 c:/altera/13.0sp1/nios2eds/bin/gnu/h-i686-mingw32/bin/../lib/gcc/nios2-elf/4.1.2/../../../../nios2-elf/lib\libc.a(lib_a-atoi.o)
 .debug_aranges
                0x00001ad0       0x20 c:/altera/13.0sp1/nios2eds/bin/gnu/h-i686-mingw32/bin/../lib/gcc/nios2-elf/4.1.2/../../../../nios2-elf/lib\libc.a(lib_a-calloc.o)
 .debug_aranges
                0x00001af0       0x20 c:/altera/13.0sp1/nios2eds/bin/gnu/h-i686-mingw32/bin/../lib/gcc/nios2-elf/4.1.2/../../../../nios2-elf/lib\libc.a(lib_a-malloc.o)
 .debug_aranges
                0x00001b10       0x20 c:/altera/13.0sp1/nios2eds/bin/gnu/h-i686-mingw32/bin/../lib/gcc/nios2-elf/4.1.2/../../../../nios2-elf/lib\libc.a(lib_a-memcmp.o)
 .debug_aranges
                0x00001b30       0x20 c:/altera/13.0sp1/nios2eds/bin/gnu/h-i686-mingw32/bin/../lib/gcc/nios2-elf/4.1.2/../../../../nios2-elf/lib\libc.a(lib_a-strcpy.o)
 .debug_aranges
                0x00001b50       0x20 c:/altera/13.0sp1/nios2eds/bin/gnu/h-i686-mingw32/bin/../lib/gcc/nios2-elf/4.1.2/../../../../nios2-elf/lib\libc.a(lib_a-strncmp.o)
 .debug_aranges
                0x00001b70       0x20 c:/altera/13.0sp1/nios2eds/bin/gnu/h-i686-mingw32/bin/../lib/gcc/nios2-elf/4.1.2/../../../../nios2-elf/lib\libc.a(lib_a-strncpy.o)
 .debug_aranges
                0x00001b90       0x20 c:/altera/13.0sp1/nios2eds/bin/gnu/h-i686-mingw32/bin/../lib/gcc/nios2-elf/4.1.2/../../../../nios2-elf/lib\libc.a(lib_a-strtol.o)
 .debug_aranges
                0x00001bb0       0x20 c:/altera/13.0sp1/nios2eds/bin/gnu/h-i686-mingw32/bin/../lib/gcc/nios2-elf/4.1.2/../../../../nios2-elf/lib\libc.a(lib_a-vprintf.o)
 .debug_aranges
                0x00001bd0       0x20 c:/altera/13.0sp1/nios2eds/bin/gnu/h-i686-mingw32/bin/../lib/gcc/nios2-elf/4.1.2/../../../../nios2-elf/lib\libc.a(lib_a-vsprintf.o)
 .debug_aranges
                0x00001bf0       0x20 c:/altera/13.0sp1/nios2eds/bin/gnu/h-i686-mingw32/bin/../lib/gcc/nios2-elf/4.1.2/../../../../nios2-elf/lib\libc.a(lib_a-__atexit.o)

.debug_pubnames
                0x00000000     0x56de
 *(.debug_pubnames)
 .debug_pubnames
                0x00000000       0x68 obj/default/LCD.o
 .debug_pubnames
                0x00000068       0x7c obj/default/SSS_DE2_115.o
 .debug_pubnames
                0x000000e4       0x61 obj/default/alt_error_handler.o
 .debug_pubnames
                0x00000145      0x102 obj/default/dm9000a.o
 .debug_pubnames
                0x00000247       0xcd obj/default/iniche_init.o
 .debug_pubnames
                0x00000314       0x54 obj/default/led.o
 .debug_pubnames
                0x00000368       0xc9 obj/default/network_utilities.o
 .debug_pubnames
                0x00000431      0x154 obj/default/simple_socket_server.o
 .debug_pubnames
                0x00000585       0x23 c:/altera/13.0sp1/nios2eds/bin/gnu/h-i686-mingw32/bin/../lib/gcc/nios2-elf/4.1.2\libgcc.a(_fixunsdfsi.o)
 .debug_pubnames
                0x000005a8       0x22 c:/altera/13.0sp1/nios2eds/bin/gnu/h-i686-mingw32/bin/../lib/gcc/nios2-elf/4.1.2\libgcc.a(_si_to_sf.o)
 .debug_pubnames
                0x000005ca       0x20 c:/altera/13.0sp1/nios2eds/bin/gnu/h-i686-mingw32/bin/../lib/gcc/nios2-elf/4.1.2\libgcc.a(_sf_to_si.o)
 .debug_pubnames
                0x000005ea       0x24 c:/altera/13.0sp1/nios2eds/bin/gnu/h-i686-mingw32/bin/../lib/gcc/nios2-elf/4.1.2\libgcc.a(_usi_to_sf.o)
 .debug_pubnames
                0x0000060e       0x2c c:/altera/13.0sp1/nios2eds/bin/gnu/h-i686-mingw32/bin/../lib/gcc/nios2-elf/4.1.2\libgcc.a(_addsub_df.o)
 .debug_pubnames
                0x0000063a       0x1f c:/altera/13.0sp1/nios2eds/bin/gnu/h-i686-mingw32/bin/../lib/gcc/nios2-elf/4.1.2\libgcc.a(_mul_df.o)
 .debug_pubnames
                0x00000659       0x1e c:/altera/13.0sp1/nios2eds/bin/gnu/h-i686-mingw32/bin/../lib/gcc/nios2-elf/4.1.2\libgcc.a(_ge_df.o)
 .debug_pubnames
                0x00000677       0x20 c:/altera/13.0sp1/nios2eds/bin/gnu/h-i686-mingw32/bin/../lib/gcc/nios2-elf/4.1.2\libgcc.a(_df_to_si.o)
 .debug_pubnames
                0x00000697       0x22 c:/altera/13.0sp1/nios2eds/bin/gnu/h-i686-mingw32/bin/../lib/gcc/nios2-elf/4.1.2\libgcc.a(_thenan_df.o)
 .debug_pubnames
                0x000006b9       0x24 c:/altera/13.0sp1/nios2eds/bin/gnu/h-i686-mingw32/bin/../lib/gcc/nios2-elf/4.1.2\libgcc.a(_usi_to_df.o)
 .debug_pubnames
                0x000006dd       0x1f c:/altera/13.0sp1/nios2eds/bin/gnu/h-i686-mingw32/bin/../lib/gcc/nios2-elf/4.1.2\libgcc.a(_muldi3.o)
 .debug_pubnames
                0x000006fc       0x1f c:/altera/13.0sp1/nios2eds/bin/gnu/h-i686-mingw32/bin/../lib/gcc/nios2-elf/4.1.2\libgcc.a(_clzsi2.o)
 .debug_pubnames
                0x0000071b       0x1f c:/altera/13.0sp1/nios2eds/bin/gnu/h-i686-mingw32/bin/../lib/gcc/nios2-elf/4.1.2\libgcc.a(_pack_sf.o)
 .debug_pubnames
                0x0000073a       0x21 c:/altera/13.0sp1/nios2eds/bin/gnu/h-i686-mingw32/bin/../lib/gcc/nios2-elf/4.1.2\libgcc.a(_unpack_sf.o)
 .debug_pubnames
                0x0000075b       0x1f c:/altera/13.0sp1/nios2eds/bin/gnu/h-i686-mingw32/bin/../lib/gcc/nios2-elf/4.1.2\libgcc.a(_pack_df.o)
 .debug_pubnames
                0x0000077a       0x21 c:/altera/13.0sp1/nios2eds/bin/gnu/h-i686-mingw32/bin/../lib/gcc/nios2-elf/4.1.2\libgcc.a(_unpack_df.o)
 .debug_pubnames
                0x0000079b       0x26 c:/altera/13.0sp1/nios2eds/bin/gnu/h-i686-mingw32/bin/../lib/gcc/nios2-elf/4.1.2\libgcc.a(_fpcmp_parts_df.o)
 .debug_pubnames
                0x000007c1       0x20 c:/altera/13.0sp1/nios2eds/bin/gnu/h-i686-mingw32/bin/../lib/gcc/nios2-elf/4.1.2\libgcc.a(_clz.o)
 .debug_pubnames
                0x000007e1       0x2e c:/altera/13.0sp1/nios2eds/bin/gnu/h-i686-mingw32/bin/../lib/gcc/nios2-elf/4.1.2/../../../../nios2-elf/lib\libc.a(lib_a-ctype_.o)
 .debug_pubnames
                0x0000080f       0x1b c:/altera/13.0sp1/nios2eds/bin/gnu/h-i686-mingw32/bin/../lib/gcc/nios2-elf/4.1.2/../../../../nios2-elf/lib\libc.a(lib_a-exit.o)
 .debug_pubnames
                0x0000082a       0x2d c:/altera/13.0sp1/nios2eds/bin/gnu/h-i686-mingw32/bin/../lib/gcc/nios2-elf/4.1.2/../../../../nios2-elf/lib\libc.a(lib_a-fprintf.o)
 .debug_pubnames
                0x00000857       0x2b c:/altera/13.0sp1/nios2eds/bin/gnu/h-i686-mingw32/bin/../lib/gcc/nios2-elf/4.1.2/../../../../nios2-elf/lib\libc.a(lib_a-fwrite.o)
 .debug_pubnames
                0x00000882       0x27 c:/altera/13.0sp1/nios2eds/bin/gnu/h-i686-mingw32/bin/../lib/gcc/nios2-elf/4.1.2/../../../../nios2-elf/lib\libc.a(lib_a-getc.o)
 .debug_pubnames
                0x000008a9       0x39 c:/altera/13.0sp1/nios2eds/bin/gnu/h-i686-mingw32/bin/../lib/gcc/nios2-elf/4.1.2/../../../../nios2-elf/lib\libc.a(lib_a-impure.o)
 .debug_pubnames
                0x000008e2       0x1d c:/altera/13.0sp1/nios2eds/bin/gnu/h-i686-mingw32/bin/../lib/gcc/nios2-elf/4.1.2/../../../../nios2-elf/lib\libc.a(lib_a-memcpy.o)
 .debug_pubnames
                0x000008ff       0x1e c:/altera/13.0sp1/nios2eds/bin/gnu/h-i686-mingw32/bin/../lib/gcc/nios2-elf/4.1.2/../../../../nios2-elf/lib\libc.a(lib_a-memmove.o)
 .debug_pubnames
                0x0000091d       0x1d c:/altera/13.0sp1/nios2eds/bin/gnu/h-i686-mingw32/bin/../lib/gcc/nios2-elf/4.1.2/../../../../nios2-elf/lib\libc.a(lib_a-memset.o)
 .debug_pubnames
                0x0000093a       0x2b c:/altera/13.0sp1/nios2eds/bin/gnu/h-i686-mingw32/bin/../lib/gcc/nios2-elf/4.1.2/../../../../nios2-elf/lib\libc.a(lib_a-perror.o)
 .debug_pubnames
                0x00000965       0x2b c:/altera/13.0sp1/nios2eds/bin/gnu/h-i686-mingw32/bin/../lib/gcc/nios2-elf/4.1.2/../../../../nios2-elf/lib\libc.a(lib_a-printf.o)
 .debug_pubnames
                0x00000990       0x27 c:/altera/13.0sp1/nios2eds/bin/gnu/h-i686-mingw32/bin/../lib/gcc/nios2-elf/4.1.2/../../../../nios2-elf/lib\libc.a(lib_a-putc.o)
 .debug_pubnames
                0x000009b7       0x2d c:/altera/13.0sp1/nios2eds/bin/gnu/h-i686-mingw32/bin/../lib/gcc/nios2-elf/4.1.2/../../../../nios2-elf/lib\libc.a(lib_a-putchar.o)
 .debug_pubnames
                0x000009e4       0x27 c:/altera/13.0sp1/nios2eds/bin/gnu/h-i686-mingw32/bin/../lib/gcc/nios2-elf/4.1.2/../../../../nios2-elf/lib\libc.a(lib_a-puts.o)
 .debug_pubnames
                0x00000a0b       0x2c c:/altera/13.0sp1/nios2eds/bin/gnu/h-i686-mingw32/bin/../lib/gcc/nios2-elf/4.1.2/../../../../nios2-elf/lib\libc.a(lib_a-rget.o)
 .debug_pubnames
                0x00000a37       0x2d c:/altera/13.0sp1/nios2eds/bin/gnu/h-i686-mingw32/bin/../lib/gcc/nios2-elf/4.1.2/../../../../nios2-elf/lib\libc.a(lib_a-sprintf.o)
 .debug_pubnames
                0x00000a64       0x1d c:/altera/13.0sp1/nios2eds/bin/gnu/h-i686-mingw32/bin/../lib/gcc/nios2-elf/4.1.2/../../../../nios2-elf/lib\libc.a(lib_a-strchr.o)
 .debug_pubnames
                0x00000a81       0x1f c:/altera/13.0sp1/nios2eds/bin/gnu/h-i686-mingw32/bin/../lib/gcc/nios2-elf/4.1.2/../../../../nios2-elf/lib\libc.a(lib_a-strerror.o)
 .debug_pubnames
                0x00000aa0       0x1d c:/altera/13.0sp1/nios2eds/bin/gnu/h-i686-mingw32/bin/../lib/gcc/nios2-elf/4.1.2/../../../../nios2-elf/lib\libc.a(lib_a-strlen.o)
 .debug_pubnames
                0x00000abd       0x25 c:/altera/13.0sp1/nios2eds/bin/gnu/h-i686-mingw32/bin/../lib/gcc/nios2-elf/4.1.2/../../../../nios2-elf/lib\libc.a(lib_a-u_strerr.o)
 .debug_pubnames
                0x00000ae2       0x45 c:/altera/13.0sp1/nios2eds/bin/gnu/h-i686-mingw32/bin/../lib/gcc/nios2-elf/4.1.2/../../../../nios2-elf/lib\libc.a(lib_a-vfprintf.o)
 .debug_pubnames
                0x00000b27       0x2c c:/altera/13.0sp1/nios2eds/bin/gnu/h-i686-mingw32/bin/../lib/gcc/nios2-elf/4.1.2/../../../../nios2-elf/lib\libc.a(lib_a-wbuf.o)
 .debug_pubnames
                0x00000b53       0x22 c:/altera/13.0sp1/nios2eds/bin/gnu/h-i686-mingw32/bin/../lib/gcc/nios2-elf/4.1.2/../../../../nios2-elf/lib\libc.a(lib_a-wsetup.o)
 .debug_pubnames
                0x00000b75       0x27 c:/altera/13.0sp1/nios2eds/bin/gnu/h-i686-mingw32/bin/../lib/gcc/nios2-elf/4.1.2/../../../../nios2-elf/lib\libc.a(lib_a-__call_atexit.o)
 .debug_pubnames
                0x00000b9c       0x1e c:/altera/13.0sp1/nios2eds/bin/gnu/h-i686-mingw32/bin/../lib/gcc/nios2-elf/4.1.2/../../../../nios2-elf/lib\libc.a(lib_a-dtoa.o)
 .debug_pubnames
                0x00000bba       0x2b c:/altera/13.0sp1/nios2eds/bin/gnu/h-i686-mingw32/bin/../lib/gcc/nios2-elf/4.1.2/../../../../nios2-elf/lib\libc.a(lib_a-fflush.o)
 .debug_pubnames
                0x00000be5       0xdb c:/altera/13.0sp1/nios2eds/bin/gnu/h-i686-mingw32/bin/../lib/gcc/nios2-elf/4.1.2/../../../../nios2-elf/lib\libc.a(lib_a-findfp.o)
 .debug_pubnames
                0x00000cc0       0x29 c:/altera/13.0sp1/nios2eds/bin/gnu/h-i686-mingw32/bin/../lib/gcc/nios2-elf/4.1.2/../../../../nios2-elf/lib\libc.a(lib_a-fputc.o)
 .debug_pubnames
                0x00000ce9       0x29 c:/altera/13.0sp1/nios2eds/bin/gnu/h-i686-mingw32/bin/../lib/gcc/nios2-elf/4.1.2/../../../../nios2-elf/lib\libc.a(lib_a-fputs.o)
 .debug_pubnames
                0x00000d12       0x31 c:/altera/13.0sp1/nios2eds/bin/gnu/h-i686-mingw32/bin/../lib/gcc/nios2-elf/4.1.2/../../../../nios2-elf/lib\libc.a(lib_a-freer.o)
 .debug_pubnames
                0x00000d43       0x23 c:/altera/13.0sp1/nios2eds/bin/gnu/h-i686-mingw32/bin/../lib/gcc/nios2-elf/4.1.2/../../../../nios2-elf/lib\libc.a(lib_a-fvwrite.o)
 .debug_pubnames
                0x00000d66       0x2e c:/altera/13.0sp1/nios2eds/bin/gnu/h-i686-mingw32/bin/../lib/gcc/nios2-elf/4.1.2/../../../../nios2-elf/lib\libc.a(lib_a-fwalk.o)
 .debug_pubnames
                0x00000d94       0xc3 c:/altera/13.0sp1/nios2eds/bin/gnu/h-i686-mingw32/bin/../lib/gcc/nios2-elf/4.1.2/../../../../nios2-elf/lib\libc.a(lib_a-locale.o)
 .debug_pubnames
                0x00000e57       0x23 c:/altera/13.0sp1/nios2eds/bin/gnu/h-i686-mingw32/bin/../lib/gcc/nios2-elf/4.1.2/../../../../nios2-elf/lib\libc.a(lib_a-makebuf.o)
 .debug_pubnames
                0x00000e7a       0xce c:/altera/13.0sp1/nios2eds/bin/gnu/h-i686-mingw32/bin/../lib/gcc/nios2-elf/4.1.2/../../../../nios2-elf/lib\libc.a(lib_a-mallocr.o)
 .debug_pubnames
                0x00000f48       0x1d c:/altera/13.0sp1/nios2eds/bin/gnu/h-i686-mingw32/bin/../lib/gcc/nios2-elf/4.1.2/../../../../nios2-elf/lib\libc.a(lib_a-memchr.o)
 .debug_pubnames
                0x00000f65      0x13a c:/altera/13.0sp1/nios2eds/bin/gnu/h-i686-mingw32/bin/../lib/gcc/nios2-elf/4.1.2/../../../../nios2-elf/lib\libc.a(lib_a-mprec.o)
 .debug_pubnames
                0x0000109f       0x21 c:/altera/13.0sp1/nios2eds/bin/gnu/h-i686-mingw32/bin/../lib/gcc/nios2-elf/4.1.2/../../../../nios2-elf/lib\libc.a(lib_a-reallocr.o)
 .debug_pubnames
                0x000010c0       0x22 c:/altera/13.0sp1/nios2eds/bin/gnu/h-i686-mingw32/bin/../lib/gcc/nios2-elf/4.1.2/../../../../nios2-elf/lib\libc.a(lib_a-refill.o)
 .debug_pubnames
                0x000010e2       0x1f c:/altera/13.0sp1/nios2eds/bin/gnu/h-i686-mingw32/bin/../lib/gcc/nios2-elf/4.1.2/../../../../nios2-elf/lib\libc.a(lib_a-s_isinfd.o)
 .debug_pubnames
                0x00001101       0x1f c:/altera/13.0sp1/nios2eds/bin/gnu/h-i686-mingw32/bin/../lib/gcc/nios2-elf/4.1.2/../../../../nios2-elf/lib\libc.a(lib_a-s_isnand.o)
 .debug_pubnames
                0x00001120       0x1e c:/altera/13.0sp1/nios2eds/bin/gnu/h-i686-mingw32/bin/../lib/gcc/nios2-elf/4.1.2/../../../../nios2-elf/lib\libc.a(lib_a-sbrkr.o)
 .debug_pubnames
                0x0000113e       0x44 c:/altera/13.0sp1/nios2eds/bin/gnu/h-i686-mingw32/bin/../lib/gcc/nios2-elf/4.1.2/../../../../nios2-elf/lib\libc.a(lib_a-stdio.o)
 .debug_pubnames
                0x00001182       0x1d c:/altera/13.0sp1/nios2eds/bin/gnu/h-i686-mingw32/bin/../lib/gcc/nios2-elf/4.1.2/../../../../nios2-elf/lib\libc.a(lib_a-strcmp.o)
 .debug_pubnames
                0x0000119f       0x1f c:/altera/13.0sp1/nios2eds/bin/gnu/h-i686-mingw32/bin/../lib/gcc/nios2-elf/4.1.2/../../../../nios2-elf/lib\libc.a(lib_a-writer.o)
 .debug_pubnames
                0x000011be       0x20 c:/altera/13.0sp1/nios2eds/bin/gnu/h-i686-mingw32/bin/../lib/gcc/nios2-elf/4.1.2/../../../../nios2-elf/lib\libc.a(lib_a-callocr.o)
 .debug_pubnames
                0x000011de       0x1f c:/altera/13.0sp1/nios2eds/bin/gnu/h-i686-mingw32/bin/../lib/gcc/nios2-elf/4.1.2/../../../../nios2-elf/lib\libc.a(lib_a-closer.o)
 .debug_pubnames
                0x000011fd       0x2b c:/altera/13.0sp1/nios2eds/bin/gnu/h-i686-mingw32/bin/../lib/gcc/nios2-elf/4.1.2/../../../../nios2-elf/lib\libc.a(lib_a-fclose.o)
 .debug_pubnames
                0x00001228       0x1f c:/altera/13.0sp1/nios2eds/bin/gnu/h-i686-mingw32/bin/../lib/gcc/nios2-elf/4.1.2/../../../../nios2-elf/lib\libc.a(lib_a-fstatr.o)
 .debug_pubnames
                0x00001247       0x1c c:/altera/13.0sp1/nios2eds/bin/gnu/h-i686-mingw32/bin/../lib/gcc/nios2-elf/4.1.2/../../../../nios2-elf/lib\libc.a(lib_a-int_errno.o)
 .debug_pubnames
                0x00001263       0x20 c:/altera/13.0sp1/nios2eds/bin/gnu/h-i686-mingw32/bin/../lib/gcc/nios2-elf/4.1.2/../../../../nios2-elf/lib\libc.a(lib_a-isattyr.o)
 .debug_pubnames
                0x00001283       0x1f c:/altera/13.0sp1/nios2eds/bin/gnu/h-i686-mingw32/bin/../lib/gcc/nios2-elf/4.1.2/../../../../nios2-elf/lib\libc.a(lib_a-lseekr.o)
 .debug_pubnames
                0x000012a2       0x1e c:/altera/13.0sp1/nios2eds/bin/gnu/h-i686-mingw32/bin/../lib/gcc/nios2-elf/4.1.2/../../../../nios2-elf/lib\libc.a(lib_a-readr.o)
 .debug_pubnames
                0x000012c0       0x20 c:/altera/13.0sp1/nios2eds/bin/gnu/h-i686-mingw32/bin/../lib/gcc/nios2-elf/4.1.2\libgcc.a(_udivdi3.o)
 .debug_pubnames
                0x000012e0       0x20 c:/altera/13.0sp1/nios2eds/bin/gnu/h-i686-mingw32/bin/../lib/gcc/nios2-elf/4.1.2\libgcc.a(_umoddi3.o)
 .debug_pubnames
                0x00001300       0x1f c:/altera/13.0sp1/nios2eds/bin/gnu/h-i686-mingw32/bin/../lib/gcc/nios2-elf/4.1.2\libgcc.a(_div_df.o)
 .debug_pubnames
                0x0000131f       0x1e c:/altera/13.0sp1/nios2eds/bin/gnu/h-i686-mingw32/bin/../lib/gcc/nios2-elf/4.1.2\libgcc.a(_eq_df.o)
 .debug_pubnames
                0x0000133d       0x1e c:/altera/13.0sp1/nios2eds/bin/gnu/h-i686-mingw32/bin/../lib/gcc/nios2-elf/4.1.2\libgcc.a(_ne_df.o)
 .debug_pubnames
                0x0000135b       0x1e c:/altera/13.0sp1/nios2eds/bin/gnu/h-i686-mingw32/bin/../lib/gcc/nios2-elf/4.1.2\libgcc.a(_gt_df.o)
 .debug_pubnames
                0x00001379       0x1e c:/altera/13.0sp1/nios2eds/bin/gnu/h-i686-mingw32/bin/../lib/gcc/nios2-elf/4.1.2\libgcc.a(_lt_df.o)
 .debug_pubnames
                0x00001397       0x22 c:/altera/13.0sp1/nios2eds/bin/gnu/h-i686-mingw32/bin/../lib/gcc/nios2-elf/4.1.2\libgcc.a(_si_to_df.o)
 .debug_pubnames
                0x000013b9       0x48 c:/altera/13.0sp1/nios2eds/bin/gnu/h-i686-mingw32/bin/../lib/gcc/nios2-elf/4.1.2\libgcc.a(lib2-divmod.o)
 .debug_pubnames
                0x00001401       0x1c ../server1_bsp/\libucosii_bsp.a(alt_exit.o)
 .debug_pubnames
                0x0000141d       0x58 ../server1_bsp/\libucosii_bsp.a(alt_flash_dev.o)
 .debug_pubnames
                0x00001475       0x1c ../server1_bsp/\libucosii_bsp.a(alt_fstat.o)
 .debug_pubnames
                0x00001491       0x27 ../server1_bsp/\libucosii_bsp.a(alt_irq_register.o)
 .debug_pubnames
                0x000014b8       0x3b ../server1_bsp/\libucosii_bsp.a(alt_irq_vars.o)
 .debug_pubnames
                0x000014f3       0x1d ../server1_bsp/\libucosii_bsp.a(alt_isatty.o)
 .debug_pubnames
                0x00001510       0x1c ../server1_bsp/\libucosii_bsp.a(alt_lseek.o)
 .debug_pubnames
                0x0000152c       0x46 ../server1_bsp/\libucosii_bsp.a(alt_main.o)
 .debug_pubnames
                0x00001572       0x1b ../server1_bsp/\libucosii_bsp.a(alt_sbrk.o)
 .debug_pubnames
                0x0000158d       0x1d ../server1_bsp/\libucosii_bsp.a(alt_usleep.o)
 .debug_pubnames
                0x000015aa       0x41 ../server1_bsp/\libucosii_bsp.a(alt_env_lock.o)
 .debug_pubnames
                0x000015eb       0x48 ../server1_bsp/\libucosii_bsp.a(alt_malloc_lock.o)
 .debug_pubnames
                0x00001633      0x3f8 ../server1_bsp/\libucosii_bsp.a(os_core.o)
 .debug_pubnames
                0x00001a2b      0x3c5 ../server1_bsp/\libucosii_bsp.a(os_dbg.o)
 .debug_pubnames
                0x00001df0       0xd0 ../server1_bsp/\libucosii_bsp.a(os_flag.o)
 .debug_pubnames
                0x00001ec0       0x7c ../server1_bsp/\libucosii_bsp.a(os_mem.o)
 .debug_pubnames
                0x00001f3c       0xa9 ../server1_bsp/\libucosii_bsp.a(os_q.o)
 .debug_pubnames
                0x00001fe5       0x8a ../server1_bsp/\libucosii_bsp.a(os_sem.o)
 .debug_pubnames
                0x0000206f       0xe5 ../server1_bsp/\libucosii_bsp.a(os_task.o)
 .debug_pubnames
                0x00002154       0x62 ../server1_bsp/\libucosii_bsp.a(os_time.o)
 .debug_pubnames
                0x000021b6       0x34 ../server1_bsp/\libucosii_bsp.a(alt_sys_init.o)
 .debug_pubnames
                0x000021ea       0xac ../server1_bsp/\libucosii_bsp.a(altera_avalon_cfi_flash.o)
 .debug_pubnames
                0x00002296      0x27a ../server1_bsp/\libucosii_bsp.a(altera_avalon_cfi_flash_table.o)
 .debug_pubnames
                0x00002510       0xb5 ../server1_bsp/\libucosii_bsp.a(altera_avalon_epcs_flash_controller.o)
 .debug_pubnames
                0x000025c5       0xa5 ../server1_bsp/\libucosii_bsp.a(altera_avalon_jtag_uart_fd.o)
 .debug_pubnames
                0x0000266a       0x55 ../server1_bsp/\libucosii_bsp.a(altera_avalon_jtag_uart_init.o)
 .debug_pubnames
                0x000026bf       0x34 ../server1_bsp/\libucosii_bsp.a(altera_avalon_jtag_uart_ioctl.o)
 .debug_pubnames
                0x000026f3       0x33 ../server1_bsp/\libucosii_bsp.a(altera_avalon_jtag_uart_read.o)
 .debug_pubnames
                0x00002726       0x34 ../server1_bsp/\libucosii_bsp.a(altera_avalon_jtag_uart_write.o)
 .debug_pubnames
                0x0000275a       0x55 ../server1_bsp/\libucosii_bsp.a(altera_avalon_lcd_16207.o)
 .debug_pubnames
                0x000027af       0x37 ../server1_bsp/\libucosii_bsp.a(altera_avalon_lcd_16207_fd.o)
 .debug_pubnames
                0x000027e6       0x2f ../server1_bsp/\libucosii_bsp.a(altera_avalon_timer_sc.o)
 .debug_pubnames
                0x00002815       0x71 ../server1_bsp/\libucosii_bsp.a(altera_avalon_uart_fd.o)
 .debug_pubnames
                0x00002886       0x4b ../server1_bsp/\libucosii_bsp.a(altera_avalon_uart_init.o)
 .debug_pubnames
                0x000028d1       0x2e ../server1_bsp/\libucosii_bsp.a(altera_avalon_uart_read.o)
 .debug_pubnames
                0x000028ff       0x2f ../server1_bsp/\libucosii_bsp.a(altera_avalon_uart_write.o)
 .debug_pubnames
                0x0000292e      0x118 ../server1_bsp/\libucosii_bsp.a(epcs_commands.o)
 .debug_pubnames
                0x00002a46       0x1c ../server1_bsp/\libucosii_bsp.a(alt_iniche_close.o)
 .debug_pubnames
                0x00002a62       0x42 ../server1_bsp/\libucosii_bsp.a(alt_iniche_dev.o)
 .debug_pubnames
                0x00002aa4       0x1b ../server1_bsp/\libucosii_bsp.a(alt_iniche_read.o)
 .debug_pubnames
                0x00002abf       0x1c ../server1_bsp/\libucosii_bsp.a(alt_iniche_write.o)
 .debug_pubnames
                0x00002adb       0x90 ../server1_bsp/\libucosii_bsp.a(ipnet.o)
 .debug_pubnames
                0x00002b6b       0x81 ../server1_bsp/\libucosii_bsp.a(ipstart.o)
 .debug_pubnames
                0x00002bec      0x108 ../server1_bsp/\libucosii_bsp.a(igmp_cmn.o)
 .debug_pubnames
                0x00002cf4       0xc4 ../server1_bsp/\libucosii_bsp.a(bsdsock.o)
 .debug_pubnames
                0x00002db8       0x27 ../server1_bsp/\libucosii_bsp.a(cksum.o)
 .debug_pubnames
                0x00002ddf       0xcc ../server1_bsp/\libucosii_bsp.a(in_utils.o)
 .debug_pubnames
                0x00002eab       0xb2 ../server1_bsp/\libucosii_bsp.a(netmain.o)
 .debug_pubnames
                0x00002f5d       0xa6 ../server1_bsp/\libucosii_bsp.a(parseip.o)
 .debug_pubnames
                0x00003003       0x97 ../server1_bsp/\libucosii_bsp.a(tk_crnos.o)
 .debug_pubnames
                0x0000309a      0x252 ../server1_bsp/\libucosii_bsp.a(dhcpclnt.o)
 .debug_pubnames
                0x000032ec       0x1f ../server1_bsp/\libucosii_bsp.a(dhcputil.o)
 .debug_pubnames
                0x0000330b       0xe2 ../server1_bsp/\libucosii_bsp.a(pktalloc.o)
 .debug_pubnames
                0x000033ed       0x2d ../server1_bsp/\libucosii_bsp.a(q.o)
 .debug_pubnames
                0x0000341a       0x3a ../server1_bsp/\libucosii_bsp.a(udp_open.o)
 .debug_pubnames
                0x00003454       0xc5 ../server1_bsp/\libucosii_bsp.a(brdutils.o)
 .debug_pubnames
                0x00003519      0x10c ../server1_bsp/\libucosii_bsp.a(osportco.o)
 .debug_pubnames
                0x00003625       0xf5 ../server1_bsp/\libucosii_bsp.a(targnios.o)
 .debug_pubnames
                0x0000371a      0x190 ../server1_bsp/\libucosii_bsp.a(nptcp.o)
 .debug_pubnames
                0x000038aa       0x46 ../server1_bsp/\libucosii_bsp.a(rawsock.o)
 .debug_pubnames
                0x000038f0      0x108 ../server1_bsp/\libucosii_bsp.a(sockcall.o)
 .debug_pubnames
                0x000039f8       0xfc ../server1_bsp/\libucosii_bsp.a(socket.o)
 .debug_pubnames
                0x00003af4      0x178 ../server1_bsp/\libucosii_bsp.a(socket2.o)
 .debug_pubnames
                0x00003c6c       0x92 ../server1_bsp/\libucosii_bsp.a(soselect.o)
 .debug_pubnames
                0x00003cfe       0xc2 ../server1_bsp/\libucosii_bsp.a(tcp_in.o)
 .debug_pubnames
                0x00003dc0       0x57 ../server1_bsp/\libucosii_bsp.a(tcp_out.o)
 .debug_pubnames
                0x00003e17       0xb9 ../server1_bsp/\libucosii_bsp.a(tcp_subr.o)
 .debug_pubnames
                0x00003ed0       0x96 ../server1_bsp/\libucosii_bsp.a(tcp_timr.o)
 .debug_pubnames
                0x00003f66       0x79 ../server1_bsp/\libucosii_bsp.a(tcp_usr.o)
 .debug_pubnames
                0x00003fdf       0x1e ../server1_bsp/\libucosii_bsp.a(tcpport.o)
 .debug_pubnames
                0x00003ffd       0x76 ../server1_bsp/\libucosii_bsp.a(udpsock.o)
 .debug_pubnames
                0x00004073       0x26 ../server1_bsp/\libucosii_bsp.a(alt_alarm_start.o)
 .debug_pubnames
                0x00004099       0x25 ../server1_bsp/\libucosii_bsp.a(alt_busy_sleep.o)
 .debug_pubnames
                0x000040be       0x20 ../server1_bsp/\libucosii_bsp.a(alt_close.o)
 .debug_pubnames
                0x000040de       0x27 ../server1_bsp/\libucosii_bsp.a(alt_dcache_flush.o)
 .debug_pubnames
                0x00004105       0x78 ../server1_bsp/\libucosii_bsp.a(alt_dev.o)
 .debug_pubnames
                0x0000417d       0x2b ../server1_bsp/\libucosii_bsp.a(alt_dev_llist_insert.o)
 .debug_pubnames
                0x000041a8       0x20 ../server1_bsp/\libucosii_bsp.a(alt_do_ctors.o)
 .debug_pubnames
                0x000041c8       0x20 ../server1_bsp/\libucosii_bsp.a(alt_do_dtors.o)
 .debug_pubnames
                0x000041e8       0x20 ../server1_bsp/\libucosii_bsp.a(alt_errno.o)
 .debug_pubnames
                0x00004208       0x23 ../server1_bsp/\libucosii_bsp.a(alt_find_dev.o)
 .debug_pubnames
                0x0000422b       0x6e ../server1_bsp/\libucosii_bsp.a(alt_iic.o)
 .debug_pubnames
                0x00004299       0x2b ../server1_bsp/\libucosii_bsp.a(alt_iic_isr_register.o)
 .debug_pubnames
                0x000042c4       0x26 ../server1_bsp/\libucosii_bsp.a(alt_io_redirect.o)
 .debug_pubnames
                0x000042ea       0x32 ../server1_bsp/\libucosii_bsp.a(alt_irq_handler.o)
 .debug_pubnames
                0x0000431c       0x1b ../server1_bsp/\libucosii_bsp.a(alt_open.o)
 .debug_pubnames
                0x00004337       0x1f ../server1_bsp/\libucosii_bsp.a(alt_read.o)
 .debug_pubnames
                0x00004356       0x25 ../server1_bsp/\libucosii_bsp.a(alt_release_fd.o)
 .debug_pubnames
                0x0000437b       0x27 ../server1_bsp/\libucosii_bsp.a(alt_remap_cached.o)
 .debug_pubnames
                0x000043a2       0x29 ../server1_bsp/\libucosii_bsp.a(alt_remap_uncached.o)
 .debug_pubnames
                0x000043cb       0x68 ../server1_bsp/\libucosii_bsp.a(alt_tick.o)
 .debug_pubnames
                0x00004433       0x20 ../server1_bsp/\libucosii_bsp.a(alt_write.o)
 .debug_pubnames
                0x00004453       0x31 ../server1_bsp/\libucosii_bsp.a(altera_nios2_qsys_irq.o)
 .debug_pubnames
                0x00004484       0xcd ../server1_bsp/\libucosii_bsp.a(os_cpu_c.o)
 .debug_pubnames
                0x00004551       0x3e ../server1_bsp/\libucosii_bsp.a(altera_avalon_cfi_flash_amd.o)
 .debug_pubnames
                0x0000458f       0x42 ../server1_bsp/\libucosii_bsp.a(altera_avalon_cfi_flash_intel.o)
 .debug_pubnames
                0x000045d1       0x2d ../server1_bsp/\libucosii_bsp.a(altera_avalon_spi.o)
 .debug_pubnames
                0x000045fe       0xd4 ../server1_bsp/\libucosii_bsp.a(allports.o)
 .debug_pubnames
                0x000046d2       0x6f ../server1_bsp/\libucosii_bsp.a(timeouts.o)
 .debug_pubnames
                0x00004741       0x35 ../server1_bsp/\libucosii_bsp.a(tk_misc.o)
 .debug_pubnames
                0x00004776       0x1c ../server1_bsp/\libucosii_bsp.a(alt_iniche_fcntl.o)
 .debug_pubnames
                0x00004792      0x134 ../server1_bsp/\libucosii_bsp.a(et_arp.o)
 .debug_pubnames
                0x000048c6       0x58 ../server1_bsp/\libucosii_bsp.a(iface.o)
 .debug_pubnames
                0x0000491e       0xea ../server1_bsp/\libucosii_bsp.a(ip.o)
 .debug_pubnames
                0x00004a08      0x22e ../server1_bsp/\libucosii_bsp.a(ip_reasm.o)
 .debug_pubnames
                0x00004c36       0x3c ../server1_bsp/\libucosii_bsp.a(ipdemux.o)
 .debug_pubnames
                0x00004c72       0x43 ../server1_bsp/\libucosii_bsp.a(ipmc.o)
 .debug_pubnames
                0x00004cb5       0x99 ../server1_bsp/\libucosii_bsp.a(ipport.o)
 .debug_pubnames
                0x00004d4e       0x87 ../server1_bsp/\libucosii_bsp.a(ipraw.o)
 .debug_pubnames
                0x00004dd5       0x5d ../server1_bsp/\libucosii_bsp.a(iproute.o)
 .debug_pubnames
                0x00004e32       0x7f ../server1_bsp/\libucosii_bsp.a(udp.o)
 .debug_pubnames
                0x00004eb1       0x23 ../server1_bsp/\libucosii_bsp.a(igmp.o)
 .debug_pubnames
                0x00004ed4       0x8d ../server1_bsp/\libucosii_bsp.a(igmp2.o)
 .debug_pubnames
                0x00004f61       0x5f ../server1_bsp/\libucosii_bsp.a(ipopt.o)
 .debug_pubnames
                0x00004fc0       0x35 ../server1_bsp/\libucosii_bsp.a(u_mctest.o)
 .debug_pubnames
                0x00004ff5       0x33 ../server1_bsp/\libucosii_bsp.a(dhcsetup.o)
 .debug_pubnames
                0x00005028       0xb1 ../server1_bsp/\libucosii_bsp.a(memdev.o)
 .debug_pubnames
                0x000050d9       0x20 ../server1_bsp/\libucosii_bsp.a(tcpcksum.o)
 .debug_pubnames
                0x000050f9       0xc8 ../server1_bsp/\libucosii_bsp.a(in_pcb.o)
 .debug_pubnames
                0x000051c1      0x278 ../server1_bsp/\libucosii_bsp.a(vfsfiles.o)
 .debug_pubnames
                0x00005439       0x1f ../server1_bsp/\libucosii_bsp.a(vfsport.o)
 .debug_pubnames
                0x00005458       0x20 ../server1_bsp/\libucosii_bsp.a(alt_fcntl.o)
 .debug_pubnames
                0x00005478       0x24 ../server1_bsp/\libucosii_bsp.a(alt_find_file.o)
 .debug_pubnames
                0x0000549c       0x21 ../server1_bsp/\libucosii_bsp.a(alt_get_fd.o)
 .debug_pubnames
                0x000054bd       0x66 ../server1_bsp/\libucosii_bsp.a(icmp.o)
 .debug_pubnames
                0x00005523       0x2a c:/altera/13.0sp1/nios2eds/bin/gnu/h-i686-mingw32/bin/../lib/gcc/nios2-elf/4.1.2/../../../../nios2-elf/lib\libc.a(lib_a-atexit.o)
 .debug_pubnames
                0x0000554d       0x27 c:/altera/13.0sp1/nios2eds/bin/gnu/h-i686-mingw32/bin/../lib/gcc/nios2-elf/4.1.2/../../../../nios2-elf/lib\libc.a(lib_a-atoi.o)
 .debug_pubnames
                0x00005574       0x1d c:/altera/13.0sp1/nios2eds/bin/gnu/h-i686-mingw32/bin/../lib/gcc/nios2-elf/4.1.2/../../../../nios2-elf/lib\libc.a(lib_a-calloc.o)
 .debug_pubnames
                0x00005591       0x26 c:/altera/13.0sp1/nios2eds/bin/gnu/h-i686-mingw32/bin/../lib/gcc/nios2-elf/4.1.2/../../../../nios2-elf/lib\libc.a(lib_a-malloc.o)
 .debug_pubnames
                0x000055b7       0x1d c:/altera/13.0sp1/nios2eds/bin/gnu/h-i686-mingw32/bin/../lib/gcc/nios2-elf/4.1.2/../../../../nios2-elf/lib\libc.a(lib_a-memcmp.o)
 .debug_pubnames
                0x000055d4       0x1d c:/altera/13.0sp1/nios2eds/bin/gnu/h-i686-mingw32/bin/../lib/gcc/nios2-elf/4.1.2/../../../../nios2-elf/lib\libc.a(lib_a-strcpy.o)
 .debug_pubnames
                0x000055f1       0x1e c:/altera/13.0sp1/nios2eds/bin/gnu/h-i686-mingw32/bin/../lib/gcc/nios2-elf/4.1.2/../../../../nios2-elf/lib\libc.a(lib_a-strncmp.o)
 .debug_pubnames
                0x0000560f       0x1e c:/altera/13.0sp1/nios2eds/bin/gnu/h-i686-mingw32/bin/../lib/gcc/nios2-elf/4.1.2/../../../../nios2-elf/lib\libc.a(lib_a-strncpy.o)
 .debug_pubnames
                0x0000562d       0x2b c:/altera/13.0sp1/nios2eds/bin/gnu/h-i686-mingw32/bin/../lib/gcc/nios2-elf/4.1.2/../../../../nios2-elf/lib\libc.a(lib_a-strtol.o)
 .debug_pubnames
                0x00005658       0x2d c:/altera/13.0sp1/nios2eds/bin/gnu/h-i686-mingw32/bin/../lib/gcc/nios2-elf/4.1.2/../../../../nios2-elf/lib\libc.a(lib_a-vprintf.o)
 .debug_pubnames
                0x00005685       0x2f c:/altera/13.0sp1/nios2eds/bin/gnu/h-i686-mingw32/bin/../lib/gcc/nios2-elf/4.1.2/../../../../nios2-elf/lib\libc.a(lib_a-vsprintf.o)
 .debug_pubnames
                0x000056b4       0x2a c:/altera/13.0sp1/nios2eds/bin/gnu/h-i686-mingw32/bin/../lib/gcc/nios2-elf/4.1.2/../../../../nios2-elf/lib\libc.a(lib_a-__atexit.o)

.debug_info     0x00000000    0x7d922
 *(.debug_info .gnu.linkonce.wi.*)
 .debug_info    0x00000000       0x65 ../server1_bsp//obj/HAL/src/crt0.o
 .debug_info    0x00000065      0x216 obj/default/LCD.o
 .debug_info    0x0000027b      0x70f obj/default/SSS_DE2_115.o
 .debug_info    0x0000098a      0xd56 obj/default/alt_error_handler.o
 .debug_info    0x000016e0     0x1243 obj/default/dm9000a.o
 .debug_info    0x00002923     0x102d obj/default/iniche_init.o
 .debug_info    0x00003950      0x45c obj/default/led.o
 .debug_info    0x00003dac     0x1b83 obj/default/network_utilities.o
 .debug_info    0x0000592f      0x92e obj/default/simple_socket_server.o
 .debug_info    0x0000625d        0x0 obj/default/tse_my_system.o
 .debug_info    0x0000625d       0xce c:/altera/13.0sp1/nios2eds/bin/gnu/h-i686-mingw32/bin/../lib/gcc/nios2-elf/4.1.2\libgcc.a(_fixunsdfsi.o)
 .debug_info    0x0000632b      0x214 c:/altera/13.0sp1/nios2eds/bin/gnu/h-i686-mingw32/bin/../lib/gcc/nios2-elf/4.1.2\libgcc.a(_si_to_sf.o)
 .debug_info    0x0000653f      0x2c1 c:/altera/13.0sp1/nios2eds/bin/gnu/h-i686-mingw32/bin/../lib/gcc/nios2-elf/4.1.2\libgcc.a(_sf_to_si.o)
 .debug_info    0x00006800      0x213 c:/altera/13.0sp1/nios2eds/bin/gnu/h-i686-mingw32/bin/../lib/gcc/nios2-elf/4.1.2\libgcc.a(_usi_to_sf.o)
 .debug_info    0x00006a13      0x493 c:/altera/13.0sp1/nios2eds/bin/gnu/h-i686-mingw32/bin/../lib/gcc/nios2-elf/4.1.2\libgcc.a(_addsub_df.o)
 .debug_info    0x00006ea6      0x488 c:/altera/13.0sp1/nios2eds/bin/gnu/h-i686-mingw32/bin/../lib/gcc/nios2-elf/4.1.2\libgcc.a(_mul_df.o)
 .debug_info    0x0000732e      0x29d c:/altera/13.0sp1/nios2eds/bin/gnu/h-i686-mingw32/bin/../lib/gcc/nios2-elf/4.1.2\libgcc.a(_ge_df.o)
 .debug_info    0x000075cb      0x2cd c:/altera/13.0sp1/nios2eds/bin/gnu/h-i686-mingw32/bin/../lib/gcc/nios2-elf/4.1.2\libgcc.a(_df_to_si.o)
 .debug_info    0x00007898      0x164 c:/altera/13.0sp1/nios2eds/bin/gnu/h-i686-mingw32/bin/../lib/gcc/nios2-elf/4.1.2\libgcc.a(_thenan_df.o)
 .debug_info    0x000079fc      0x213 c:/altera/13.0sp1/nios2eds/bin/gnu/h-i686-mingw32/bin/../lib/gcc/nios2-elf/4.1.2\libgcc.a(_usi_to_df.o)
 .debug_info    0x00007c0f      0x215 c:/altera/13.0sp1/nios2eds/bin/gnu/h-i686-mingw32/bin/../lib/gcc/nios2-elf/4.1.2\libgcc.a(_muldi3.o)
 .debug_info    0x00007e24      0x130 c:/altera/13.0sp1/nios2eds/bin/gnu/h-i686-mingw32/bin/../lib/gcc/nios2-elf/4.1.2\libgcc.a(_clzsi2.o)
 .debug_info    0x00007f54      0x2f2 c:/altera/13.0sp1/nios2eds/bin/gnu/h-i686-mingw32/bin/../lib/gcc/nios2-elf/4.1.2\libgcc.a(_pack_sf.o)
 .debug_info    0x00008246      0x25a c:/altera/13.0sp1/nios2eds/bin/gnu/h-i686-mingw32/bin/../lib/gcc/nios2-elf/4.1.2\libgcc.a(_unpack_sf.o)
 .debug_info    0x000084a0      0x2fc c:/altera/13.0sp1/nios2eds/bin/gnu/h-i686-mingw32/bin/../lib/gcc/nios2-elf/4.1.2\libgcc.a(_pack_df.o)
 .debug_info    0x0000879c      0x268 c:/altera/13.0sp1/nios2eds/bin/gnu/h-i686-mingw32/bin/../lib/gcc/nios2-elf/4.1.2\libgcc.a(_unpack_df.o)
 .debug_info    0x00008a04      0x21b c:/altera/13.0sp1/nios2eds/bin/gnu/h-i686-mingw32/bin/../lib/gcc/nios2-elf/4.1.2\libgcc.a(_fpcmp_parts_df.o)
 .debug_info    0x00008c1f       0xc9 c:/altera/13.0sp1/nios2eds/bin/gnu/h-i686-mingw32/bin/../lib/gcc/nios2-elf/4.1.2\libgcc.a(_clz.o)
 .debug_info    0x00008ce8       0xa0 c:/altera/13.0sp1/nios2eds/bin/gnu/h-i686-mingw32/bin/../lib/gcc/nios2-elf/4.1.2/../../../../nios2-elf/lib\libc.a(lib_a-ctype_.o)
 .debug_info    0x00008d88      0x93f c:/altera/13.0sp1/nios2eds/bin/gnu/h-i686-mingw32/bin/../lib/gcc/nios2-elf/4.1.2/../../../../nios2-elf/lib\libc.a(lib_a-exit.o)
 .debug_info    0x000096c7      0x9e1 c:/altera/13.0sp1/nios2eds/bin/gnu/h-i686-mingw32/bin/../lib/gcc/nios2-elf/4.1.2/../../../../nios2-elf/lib\libc.a(lib_a-fprintf.o)
 .debug_info    0x0000a0a8      0xa83 c:/altera/13.0sp1/nios2eds/bin/gnu/h-i686-mingw32/bin/../lib/gcc/nios2-elf/4.1.2/../../../../nios2-elf/lib\libc.a(lib_a-fwrite.o)
 .debug_info    0x0000ab2b      0x9a7 c:/altera/13.0sp1/nios2eds/bin/gnu/h-i686-mingw32/bin/../lib/gcc/nios2-elf/4.1.2/../../../../nios2-elf/lib\libc.a(lib_a-getc.o)
 .debug_info    0x0000b4d2      0x93d c:/altera/13.0sp1/nios2eds/bin/gnu/h-i686-mingw32/bin/../lib/gcc/nios2-elf/4.1.2/../../../../nios2-elf/lib\libc.a(lib_a-impure.o)
 .debug_info    0x0000be0f      0x106 c:/altera/13.0sp1/nios2eds/bin/gnu/h-i686-mingw32/bin/../lib/gcc/nios2-elf/4.1.2/../../../../nios2-elf/lib\libc.a(lib_a-memcpy.o)
 .debug_info    0x0000bf15      0x13e c:/altera/13.0sp1/nios2eds/bin/gnu/h-i686-mingw32/bin/../lib/gcc/nios2-elf/4.1.2/../../../../nios2-elf/lib\libc.a(lib_a-memmove.o)
 .debug_info    0x0000c053      0x113 c:/altera/13.0sp1/nios2eds/bin/gnu/h-i686-mingw32/bin/../lib/gcc/nios2-elf/4.1.2/../../../../nios2-elf/lib\libc.a(lib_a-memset.o)
 .debug_info    0x0000c166      0x97b c:/altera/13.0sp1/nios2eds/bin/gnu/h-i686-mingw32/bin/../lib/gcc/nios2-elf/4.1.2/../../../../nios2-elf/lib\libc.a(lib_a-perror.o)
 .debug_info    0x0000cae1      0x9d1 c:/altera/13.0sp1/nios2eds/bin/gnu/h-i686-mingw32/bin/../lib/gcc/nios2-elf/4.1.2/../../../../nios2-elf/lib\libc.a(lib_a-printf.o)
 .debug_info    0x0000d4b2      0x9c1 c:/altera/13.0sp1/nios2eds/bin/gnu/h-i686-mingw32/bin/../lib/gcc/nios2-elf/4.1.2/../../../../nios2-elf/lib\libc.a(lib_a-putc.o)
 .debug_info    0x0000de73      0x972 c:/altera/13.0sp1/nios2eds/bin/gnu/h-i686-mingw32/bin/../lib/gcc/nios2-elf/4.1.2/../../../../nios2-elf/lib\libc.a(lib_a-putchar.o)
 .debug_info    0x0000e7e5      0xa25 c:/altera/13.0sp1/nios2eds/bin/gnu/h-i686-mingw32/bin/../lib/gcc/nios2-elf/4.1.2/../../../../nios2-elf/lib\libc.a(lib_a-puts.o)
 .debug_info    0x0000f20a      0x987 c:/altera/13.0sp1/nios2eds/bin/gnu/h-i686-mingw32/bin/../lib/gcc/nios2-elf/4.1.2/../../../../nios2-elf/lib\libc.a(lib_a-rget.o)
 .debug_info    0x0000fb91      0xa16 c:/altera/13.0sp1/nios2eds/bin/gnu/h-i686-mingw32/bin/../lib/gcc/nios2-elf/4.1.2/../../../../nios2-elf/lib\libc.a(lib_a-sprintf.o)
 .debug_info    0x000105a7      0x118 c:/altera/13.0sp1/nios2eds/bin/gnu/h-i686-mingw32/bin/../lib/gcc/nios2-elf/4.1.2/../../../../nios2-elf/lib\libc.a(lib_a-strchr.o)
 .debug_info    0x000106bf       0xbb c:/altera/13.0sp1/nios2eds/bin/gnu/h-i686-mingw32/bin/../lib/gcc/nios2-elf/4.1.2/../../../../nios2-elf/lib\libc.a(lib_a-strerror.o)
 .debug_info    0x0001077a       0xdb c:/altera/13.0sp1/nios2eds/bin/gnu/h-i686-mingw32/bin/../lib/gcc/nios2-elf/4.1.2/../../../../nios2-elf/lib\libc.a(lib_a-strlen.o)
 .debug_info    0x00010855       0x63 c:/altera/13.0sp1/nios2eds/bin/gnu/h-i686-mingw32/bin/../lib/gcc/nios2-elf/4.1.2/../../../../nios2-elf/lib\libc.a(lib_a-u_strerr.o)
 .debug_info    0x000108b8     0x10d5 c:/altera/13.0sp1/nios2eds/bin/gnu/h-i686-mingw32/bin/../lib/gcc/nios2-elf/4.1.2/../../../../nios2-elf/lib\libc.a(lib_a-vfprintf.o)
 .debug_info    0x0001198d      0x9ae c:/altera/13.0sp1/nios2eds/bin/gnu/h-i686-mingw32/bin/../lib/gcc/nios2-elf/4.1.2/../../../../nios2-elf/lib\libc.a(lib_a-wbuf.o)
 .debug_info    0x0001233b      0x95d c:/altera/13.0sp1/nios2eds/bin/gnu/h-i686-mingw32/bin/../lib/gcc/nios2-elf/4.1.2/../../../../nios2-elf/lib\libc.a(lib_a-wsetup.o)
 .debug_info    0x00012c98      0x9e2 c:/altera/13.0sp1/nios2eds/bin/gnu/h-i686-mingw32/bin/../lib/gcc/nios2-elf/4.1.2/../../../../nios2-elf/lib\libc.a(lib_a-__call_atexit.o)
 .debug_info    0x0001367a      0xd6f c:/altera/13.0sp1/nios2eds/bin/gnu/h-i686-mingw32/bin/../lib/gcc/nios2-elf/4.1.2/../../../../nios2-elf/lib\libc.a(lib_a-dtoa.o)
 .debug_info    0x000143e9      0x9fe c:/altera/13.0sp1/nios2eds/bin/gnu/h-i686-mingw32/bin/../lib/gcc/nios2-elf/4.1.2/../../../../nios2-elf/lib\libc.a(lib_a-fflush.o)
 .debug_info    0x00014de7      0xb72 c:/altera/13.0sp1/nios2eds/bin/gnu/h-i686-mingw32/bin/../lib/gcc/nios2-elf/4.1.2/../../../../nios2-elf/lib\libc.a(lib_a-findfp.o)
 .debug_info    0x00015959      0x9bd c:/altera/13.0sp1/nios2eds/bin/gnu/h-i686-mingw32/bin/../lib/gcc/nios2-elf/4.1.2/../../../../nios2-elf/lib\libc.a(lib_a-fputc.o)
 .debug_info    0x00016316      0xa40 c:/altera/13.0sp1/nios2eds/bin/gnu/h-i686-mingw32/bin/../lib/gcc/nios2-elf/4.1.2/../../../../nios2-elf/lib\libc.a(lib_a-fputs.o)
 .debug_info    0x00016d56      0xbc9 c:/altera/13.0sp1/nios2eds/bin/gnu/h-i686-mingw32/bin/../lib/gcc/nios2-elf/4.1.2/../../../../nios2-elf/lib\libc.a(lib_a-freer.o)
 .debug_info    0x0001791f      0xa88 c:/altera/13.0sp1/nios2eds/bin/gnu/h-i686-mingw32/bin/../lib/gcc/nios2-elf/4.1.2/../../../../nios2-elf/lib\libc.a(lib_a-fvwrite.o)
 .debug_info    0x000183a7      0xaed c:/altera/13.0sp1/nios2eds/bin/gnu/h-i686-mingw32/bin/../lib/gcc/nios2-elf/4.1.2/../../../../nios2-elf/lib\libc.a(lib_a-fwalk.o)
 .debug_info    0x00018e94      0xb97 c:/altera/13.0sp1/nios2eds/bin/gnu/h-i686-mingw32/bin/../lib/gcc/nios2-elf/4.1.2/../../../../nios2-elf/lib\libc.a(lib_a-locale.o)
 .debug_info    0x00019a2b      0xb1a c:/altera/13.0sp1/nios2eds/bin/gnu/h-i686-mingw32/bin/../lib/gcc/nios2-elf/4.1.2/../../../../nios2-elf/lib\libc.a(lib_a-makebuf.o)
 .debug_info    0x0001a545      0xcd0 c:/altera/13.0sp1/nios2eds/bin/gnu/h-i686-mingw32/bin/../lib/gcc/nios2-elf/4.1.2/../../../../nios2-elf/lib\libc.a(lib_a-mallocr.o)
 .debug_info    0x0001b215      0x138 c:/altera/13.0sp1/nios2eds/bin/gnu/h-i686-mingw32/bin/../lib/gcc/nios2-elf/4.1.2/../../../../nios2-elf/lib\libc.a(lib_a-memchr.o)
 .debug_info    0x0001b34d     0x1437 c:/altera/13.0sp1/nios2eds/bin/gnu/h-i686-mingw32/bin/../lib/gcc/nios2-elf/4.1.2/../../../../nios2-elf/lib\libc.a(lib_a-mprec.o)
 .debug_info    0x0001c784      0xbd7 c:/altera/13.0sp1/nios2eds/bin/gnu/h-i686-mingw32/bin/../lib/gcc/nios2-elf/4.1.2/../../../../nios2-elf/lib\libc.a(lib_a-reallocr.o)
 .debug_info    0x0001d35b      0x98b c:/altera/13.0sp1/nios2eds/bin/gnu/h-i686-mingw32/bin/../lib/gcc/nios2-elf/4.1.2/../../../../nios2-elf/lib\libc.a(lib_a-refill.o)
 .debug_info    0x0001dce6       0xd7 c:/altera/13.0sp1/nios2eds/bin/gnu/h-i686-mingw32/bin/../lib/gcc/nios2-elf/4.1.2/../../../../nios2-elf/lib\libc.a(lib_a-s_isinfd.o)
 .debug_info    0x0001ddbd       0xd5 c:/altera/13.0sp1/nios2eds/bin/gnu/h-i686-mingw32/bin/../lib/gcc/nios2-elf/4.1.2/../../../../nios2-elf/lib\libc.a(lib_a-s_isnand.o)
 .debug_info    0x0001de92      0x962 c:/altera/13.0sp1/nios2eds/bin/gnu/h-i686-mingw32/bin/../lib/gcc/nios2-elf/4.1.2/../../../../nios2-elf/lib\libc.a(lib_a-sbrkr.o)
 .debug_info    0x0001e7f4      0xaac c:/altera/13.0sp1/nios2eds/bin/gnu/h-i686-mingw32/bin/../lib/gcc/nios2-elf/4.1.2/../../../../nios2-elf/lib\libc.a(lib_a-stdio.o)
 .debug_info    0x0001f2a0       0xdd c:/altera/13.0sp1/nios2eds/bin/gnu/h-i686-mingw32/bin/../lib/gcc/nios2-elf/4.1.2/../../../../nios2-elf/lib\libc.a(lib_a-strcmp.o)
 .debug_info    0x0001f37d      0x993 c:/altera/13.0sp1/nios2eds/bin/gnu/h-i686-mingw32/bin/../lib/gcc/nios2-elf/4.1.2/../../../../nios2-elf/lib\libc.a(lib_a-writer.o)
 .debug_info    0x0001fd10      0xa1b c:/altera/13.0sp1/nios2eds/bin/gnu/h-i686-mingw32/bin/../lib/gcc/nios2-elf/4.1.2/../../../../nios2-elf/lib\libc.a(lib_a-callocr.o)
 .debug_info    0x0002072b      0x958 c:/altera/13.0sp1/nios2eds/bin/gnu/h-i686-mingw32/bin/../lib/gcc/nios2-elf/4.1.2/../../../../nios2-elf/lib\libc.a(lib_a-closer.o)
 .debug_info    0x00021083      0x994 c:/altera/13.0sp1/nios2eds/bin/gnu/h-i686-mingw32/bin/../lib/gcc/nios2-elf/4.1.2/../../../../nios2-elf/lib\libc.a(lib_a-fclose.o)
 .debug_info    0x00021a17      0xafc c:/altera/13.0sp1/nios2eds/bin/gnu/h-i686-mingw32/bin/../lib/gcc/nios2-elf/4.1.2/../../../../nios2-elf/lib\libc.a(lib_a-fstatr.o)
 .debug_info    0x00022513       0x8c c:/altera/13.0sp1/nios2eds/bin/gnu/h-i686-mingw32/bin/../lib/gcc/nios2-elf/4.1.2/../../../../nios2-elf/lib\libc.a(lib_a-int_errno.o)
 .debug_info    0x0002259f      0x958 c:/altera/13.0sp1/nios2eds/bin/gnu/h-i686-mingw32/bin/../lib/gcc/nios2-elf/4.1.2/../../../../nios2-elf/lib\libc.a(lib_a-isattyr.o)
 .debug_info    0x00022ef7      0x981 c:/altera/13.0sp1/nios2eds/bin/gnu/h-i686-mingw32/bin/../lib/gcc/nios2-elf/4.1.2/../../../../nios2-elf/lib\libc.a(lib_a-lseekr.o)
 .debug_info    0x00023878      0x98c c:/altera/13.0sp1/nios2eds/bin/gnu/h-i686-mingw32/bin/../lib/gcc/nios2-elf/4.1.2/../../../../nios2-elf/lib\libc.a(lib_a-readr.o)
 .debug_info    0x00024204      0x724 c:/altera/13.0sp1/nios2eds/bin/gnu/h-i686-mingw32/bin/../lib/gcc/nios2-elf/4.1.2\libgcc.a(_udivdi3.o)
 .debug_info    0x00024928      0x751 c:/altera/13.0sp1/nios2eds/bin/gnu/h-i686-mingw32/bin/../lib/gcc/nios2-elf/4.1.2\libgcc.a(_umoddi3.o)
 .debug_info    0x00025079      0x39b c:/altera/13.0sp1/nios2eds/bin/gnu/h-i686-mingw32/bin/../lib/gcc/nios2-elf/4.1.2\libgcc.a(_div_df.o)
 .debug_info    0x00025414      0x29d c:/altera/13.0sp1/nios2eds/bin/gnu/h-i686-mingw32/bin/../lib/gcc/nios2-elf/4.1.2\libgcc.a(_eq_df.o)
 .debug_info    0x000256b1      0x29d c:/altera/13.0sp1/nios2eds/bin/gnu/h-i686-mingw32/bin/../lib/gcc/nios2-elf/4.1.2\libgcc.a(_ne_df.o)
 .debug_info    0x0002594e      0x29d c:/altera/13.0sp1/nios2eds/bin/gnu/h-i686-mingw32/bin/../lib/gcc/nios2-elf/4.1.2\libgcc.a(_gt_df.o)
 .debug_info    0x00025beb      0x29d c:/altera/13.0sp1/nios2eds/bin/gnu/h-i686-mingw32/bin/../lib/gcc/nios2-elf/4.1.2\libgcc.a(_lt_df.o)
 .debug_info    0x00025e88      0x218 c:/altera/13.0sp1/nios2eds/bin/gnu/h-i686-mingw32/bin/../lib/gcc/nios2-elf/4.1.2\libgcc.a(_si_to_df.o)
 .debug_info    0x000260a0      0x21c c:/altera/13.0sp1/nios2eds/bin/gnu/h-i686-mingw32/bin/../lib/gcc/nios2-elf/4.1.2\libgcc.a(lib2-divmod.o)
 .debug_info    0x000262bc      0x1ee ../server1_bsp/\libucosii_bsp.a(alt_exit.o)
 .debug_info    0x000264aa      0x5d3 ../server1_bsp/\libucosii_bsp.a(alt_flash_dev.o)
 .debug_info    0x00026a7d      0x69a ../server1_bsp/\libucosii_bsp.a(alt_fstat.o)
 .debug_info    0x00027117      0x450 ../server1_bsp/\libucosii_bsp.a(alt_irq_register.o)
 .debug_info    0x00027567      0x14d ../server1_bsp/\libucosii_bsp.a(alt_irq_vars.o)
 .debug_info    0x000276b4      0x6a0 ../server1_bsp/\libucosii_bsp.a(alt_isatty.o)
 .debug_info    0x00027d54      0x4d4 ../server1_bsp/\libucosii_bsp.a(alt_lseek.o)
 .debug_info    0x00028228      0x3c3 ../server1_bsp/\libucosii_bsp.a(alt_main.o)
 .debug_info    0x000285eb      0x29d ../server1_bsp/\libucosii_bsp.a(alt_sbrk.o)
 .debug_info    0x00028888      0x21a ../server1_bsp/\libucosii_bsp.a(alt_usleep.o)
 .debug_info    0x00028aa2     0x11b9 ../server1_bsp/\libucosii_bsp.a(alt_env_lock.o)
 .debug_info    0x00029c5b     0x1315 ../server1_bsp/\libucosii_bsp.a(alt_malloc_lock.o)
 .debug_info    0x0002af70     0x1bcf ../server1_bsp/\libucosii_bsp.a(os_core.o)
 .debug_info    0x0002cb3f     0x1114 ../server1_bsp/\libucosii_bsp.a(os_dbg.o)
 .debug_info    0x0002dc53     0x122a ../server1_bsp/\libucosii_bsp.a(os_flag.o)
 .debug_info    0x0002ee7d      0x7f4 ../server1_bsp/\libucosii_bsp.a(os_mem.o)
 .debug_info    0x0002f671     0x1064 ../server1_bsp/\libucosii_bsp.a(os_q.o)
 .debug_info    0x000306d5      0xccc ../server1_bsp/\libucosii_bsp.a(os_sem.o)
 .debug_info    0x000313a1     0x1342 ../server1_bsp/\libucosii_bsp.a(os_task.o)
 .debug_info    0x000326e3      0x9c6 ../server1_bsp/\libucosii_bsp.a(os_time.o)
 .debug_info    0x000330a9     0x1286 ../server1_bsp/\libucosii_bsp.a(alt_sys_init.o)
 .debug_info    0x0003432f      0xb2f ../server1_bsp/\libucosii_bsp.a(altera_avalon_cfi_flash.o)
 .debug_info    0x00034e5e      0xe1b ../server1_bsp/\libucosii_bsp.a(altera_avalon_cfi_flash_table.o)
 .debug_info    0x00035c79      0xb8f ../server1_bsp/\libucosii_bsp.a(altera_avalon_epcs_flash_controller.o)
 .debug_info    0x00036808      0x9b8 ../server1_bsp/\libucosii_bsp.a(altera_avalon_jtag_uart_fd.o)
 .debug_info    0x000371c0      0x936 ../server1_bsp/\libucosii_bsp.a(altera_avalon_jtag_uart_init.o)
 .debug_info    0x00037af6      0x622 ../server1_bsp/\libucosii_bsp.a(altera_avalon_jtag_uart_ioctl.o)
 .debug_info    0x00038118      0x7de ../server1_bsp/\libucosii_bsp.a(altera_avalon_jtag_uart_read.o)
 .debug_info    0x000388f6      0x7d5 ../server1_bsp/\libucosii_bsp.a(altera_avalon_jtag_uart_write.o)
 .debug_info    0x000390cb      0xa84 ../server1_bsp/\libucosii_bsp.a(altera_avalon_lcd_16207.o)
 .debug_info    0x00039b4f      0x81c ../server1_bsp/\libucosii_bsp.a(altera_avalon_lcd_16207_fd.o)
 .debug_info    0x0003a36b      0x371 ../server1_bsp/\libucosii_bsp.a(altera_avalon_timer_sc.o)
 .debug_info    0x0003a6dc      0x858 ../server1_bsp/\libucosii_bsp.a(altera_avalon_uart_fd.o)
 .debug_info    0x0003af34      0x824 ../server1_bsp/\libucosii_bsp.a(altera_avalon_uart_init.o)
 .debug_info    0x0003b758      0x7a6 ../server1_bsp/\libucosii_bsp.a(altera_avalon_uart_read.o)
 .debug_info    0x0003befe      0x795 ../server1_bsp/\libucosii_bsp.a(altera_avalon_uart_write.o)
 .debug_info    0x0003c693      0x622 ../server1_bsp/\libucosii_bsp.a(epcs_commands.o)
 .debug_info    0x0003ccb5      0x19c ../server1_bsp/\libucosii_bsp.a(alt_iniche_close.o)
 .debug_info    0x0003ce51      0xb43 ../server1_bsp/\libucosii_bsp.a(alt_iniche_dev.o)
 .debug_info    0x0003d994      0x1c6 ../server1_bsp/\libucosii_bsp.a(alt_iniche_read.o)
 .debug_info    0x0003db5a      0x1cd ../server1_bsp/\libucosii_bsp.a(alt_iniche_write.o)
 .debug_info    0x0003dd27      0xc2f ../server1_bsp/\libucosii_bsp.a(ipnet.o)
 .debug_info    0x0003e956      0xb82 ../server1_bsp/\libucosii_bsp.a(ipstart.o)
 .debug_info    0x0003f4d8     0x1516 ../server1_bsp/\libucosii_bsp.a(igmp_cmn.o)
 .debug_info    0x000409ee     0x1446 ../server1_bsp/\libucosii_bsp.a(bsdsock.o)
 .debug_info    0x00041e34      0x238 ../server1_bsp/\libucosii_bsp.a(cksum.o)
 .debug_info    0x0004206c      0x72a ../server1_bsp/\libucosii_bsp.a(in_utils.o)
 .debug_info    0x00042796      0x544 ../server1_bsp/\libucosii_bsp.a(netmain.o)
 .debug_info    0x00042cda      0x6d0 ../server1_bsp/\libucosii_bsp.a(parseip.o)
 .debug_info    0x000433aa      0x951 ../server1_bsp/\libucosii_bsp.a(tk_crnos.o)
 .debug_info    0x00043cfb     0x15df ../server1_bsp/\libucosii_bsp.a(dhcpclnt.o)
 .debug_info    0x000452da      0x1c2 ../server1_bsp/\libucosii_bsp.a(dhcputil.o)
 .debug_info    0x0004549c      0xc8e ../server1_bsp/\libucosii_bsp.a(pktalloc.o)
 .debug_info    0x0004612a      0x2d2 ../server1_bsp/\libucosii_bsp.a(q.o)
 .debug_info    0x000463fc      0xb0d ../server1_bsp/\libucosii_bsp.a(udp_open.o)
 .debug_info    0x00046f09       0x73 ../server1_bsp/\libucosii_bsp.a(asm_cksum.o)
 .debug_info    0x00046f7c      0xe93 ../server1_bsp/\libucosii_bsp.a(brdutils.o)
 .debug_info    0x00047e0f      0x6c5 ../server1_bsp/\libucosii_bsp.a(osportco.o)
 .debug_info    0x000484d4      0x642 ../server1_bsp/\libucosii_bsp.a(targnios.o)
 .debug_info    0x00048b16     0x2509 ../server1_bsp/\libucosii_bsp.a(nptcp.o)
 .debug_info    0x0004b01f     0x11c1 ../server1_bsp/\libucosii_bsp.a(rawsock.o)
 .debug_info    0x0004c1e0     0x1c7f ../server1_bsp/\libucosii_bsp.a(sockcall.o)
 .debug_info    0x0004de5f     0x1a85 ../server1_bsp/\libucosii_bsp.a(socket.o)
 .debug_info    0x0004f8e4     0x154b ../server1_bsp/\libucosii_bsp.a(socket2.o)
 .debug_info    0x00050e2f     0x1264 ../server1_bsp/\libucosii_bsp.a(soselect.o)
 .debug_info    0x00052093     0x2116 ../server1_bsp/\libucosii_bsp.a(tcp_in.o)
 .debug_info    0x000541a9     0x1e05 ../server1_bsp/\libucosii_bsp.a(tcp_out.o)
 .debug_info    0x00055fae     0x1e6d ../server1_bsp/\libucosii_bsp.a(tcp_subr.o)
 .debug_info    0x00057e1b     0x1c88 ../server1_bsp/\libucosii_bsp.a(tcp_timr.o)
 .debug_info    0x00059aa3     0x1c45 ../server1_bsp/\libucosii_bsp.a(tcp_usr.o)
 .debug_info    0x0005b6e8      0x198 ../server1_bsp/\libucosii_bsp.a(tcpport.o)
 .debug_info    0x0005b880     0x131b ../server1_bsp/\libucosii_bsp.a(udpsock.o)
 .debug_info    0x0005cb9b      0x428 ../server1_bsp/\libucosii_bsp.a(alt_alarm_start.o)
 .debug_info    0x0005cfc3      0x191 ../server1_bsp/\libucosii_bsp.a(alt_busy_sleep.o)
 .debug_info    0x0005d154      0x4a5 ../server1_bsp/\libucosii_bsp.a(alt_close.o)
 .debug_info    0x0005d5f9      0x18a ../server1_bsp/\libucosii_bsp.a(alt_dcache_flush.o)
 .debug_info    0x0005d783      0x7c3 ../server1_bsp/\libucosii_bsp.a(alt_dev.o)
 .debug_info    0x0005df46      0x29d ../server1_bsp/\libucosii_bsp.a(alt_dev_llist_insert.o)
 .debug_info    0x0005e1e3       0xf5 ../server1_bsp/\libucosii_bsp.a(alt_do_ctors.o)
 .debug_info    0x0005e2d8       0xf4 ../server1_bsp/\libucosii_bsp.a(alt_do_dtors.o)
 .debug_info    0x0005e3cc      0x14a ../server1_bsp/\libucosii_bsp.a(alt_errno.o)
 .debug_info    0x0005e516      0x452 ../server1_bsp/\libucosii_bsp.a(alt_find_dev.o)
 .debug_info    0x0005e968      0x479 ../server1_bsp/\libucosii_bsp.a(alt_iic.o)
 .debug_info    0x0005ede1      0x2fa ../server1_bsp/\libucosii_bsp.a(alt_iic_isr_register.o)
 .debug_info    0x0005f0db      0x6cf ../server1_bsp/\libucosii_bsp.a(alt_io_redirect.o)
 .debug_info    0x0005f7aa       0x6a ../server1_bsp/\libucosii_bsp.a(alt_irq_entry.o)
 .debug_info    0x0005f814      0x2a0 ../server1_bsp/\libucosii_bsp.a(alt_irq_handler.o)
 .debug_info    0x0005fab4      0x550 ../server1_bsp/\libucosii_bsp.a(alt_open.o)
 .debug_info    0x00060004      0x6c8 ../server1_bsp/\libucosii_bsp.a(alt_read.o)
 .debug_info    0x000606cc      0x435 ../server1_bsp/\libucosii_bsp.a(alt_release_fd.o)
 .debug_info    0x00060b01      0x177 ../server1_bsp/\libucosii_bsp.a(alt_remap_cached.o)
 .debug_info    0x00060c78      0x17b ../server1_bsp/\libucosii_bsp.a(alt_remap_uncached.o)
 .debug_info    0x00060df3      0x3f7 ../server1_bsp/\libucosii_bsp.a(alt_tick.o)
 .debug_info    0x000611ea      0x6d1 ../server1_bsp/\libucosii_bsp.a(alt_write.o)
 .debug_info    0x000618bb      0x149 ../server1_bsp/\libucosii_bsp.a(altera_nios2_qsys_irq.o)
 .debug_info    0x00061a04       0x69 ../server1_bsp/\libucosii_bsp.a(os_cpu_a.o)
 .debug_info    0x00061a6d     0x12b9 ../server1_bsp/\libucosii_bsp.a(os_cpu_c.o)
 .debug_info    0x00062d26      0x8cf ../server1_bsp/\libucosii_bsp.a(altera_avalon_cfi_flash_amd.o)
 .debug_info    0x000635f5      0x8c5 ../server1_bsp/\libucosii_bsp.a(altera_avalon_cfi_flash_intel.o)
 .debug_info    0x00063eba      0x28f ../server1_bsp/\libucosii_bsp.a(altera_avalon_spi.o)
 .debug_info    0x00064149      0xd85 ../server1_bsp/\libucosii_bsp.a(allports.o)
 .debug_info    0x00064ece      0x3a7 ../server1_bsp/\libucosii_bsp.a(timeouts.o)
 .debug_info    0x00065275      0x206 ../server1_bsp/\libucosii_bsp.a(tk_misc.o)
 .debug_info    0x0006547b      0x1f3 ../server1_bsp/\libucosii_bsp.a(alt_iniche_fcntl.o)
 .debug_info    0x0006566e     0x125f ../server1_bsp/\libucosii_bsp.a(et_arp.o)
 .debug_info    0x000668cd      0xf7d ../server1_bsp/\libucosii_bsp.a(iface.o)
 .debug_info    0x0006784a     0x16ea ../server1_bsp/\libucosii_bsp.a(ip.o)
 .debug_info    0x00068f34     0x184e ../server1_bsp/\libucosii_bsp.a(ip_reasm.o)
 .debug_info    0x0006a782      0xdcf ../server1_bsp/\libucosii_bsp.a(ipdemux.o)
 .debug_info    0x0006b551      0xa2b ../server1_bsp/\libucosii_bsp.a(ipmc.o)
 .debug_info    0x0006bf7c      0x2c9 ../server1_bsp/\libucosii_bsp.a(ipport.o)
 .debug_info    0x0006c245      0xf3c ../server1_bsp/\libucosii_bsp.a(ipraw.o)
 .debug_info    0x0006d181      0xee7 ../server1_bsp/\libucosii_bsp.a(iproute.o)
 .debug_info    0x0006e068     0x127e ../server1_bsp/\libucosii_bsp.a(udp.o)
 .debug_info    0x0006f2e6     0x1118 ../server1_bsp/\libucosii_bsp.a(igmp.o)
 .debug_info    0x000703fe     0x134c ../server1_bsp/\libucosii_bsp.a(igmp2.o)
 .debug_info    0x0007174a     0x10c7 ../server1_bsp/\libucosii_bsp.a(ipopt.o)
 .debug_info    0x00072811      0xb9f ../server1_bsp/\libucosii_bsp.a(u_mctest.o)
 .debug_info    0x000733b0      0xa3d ../server1_bsp/\libucosii_bsp.a(dhcsetup.o)
 .debug_info    0x00073ded      0x725 ../server1_bsp/\libucosii_bsp.a(memdev.o)
 .debug_info    0x00074512      0x3ca ../server1_bsp/\libucosii_bsp.a(tcpcksum.o)
 .debug_info    0x000748dc     0x1299 ../server1_bsp/\libucosii_bsp.a(in_pcb.o)
 .debug_info    0x00075b75      0xfca ../server1_bsp/\libucosii_bsp.a(vfsfiles.o)
 .debug_info    0x00076b3f      0x199 ../server1_bsp/\libucosii_bsp.a(vfsport.o)
 .debug_info    0x00076cd8       0x70 ../server1_bsp/\libucosii_bsp.a(alt_exception_entry.o)
 .debug_info    0x00076d48      0x6e6 ../server1_bsp/\libucosii_bsp.a(alt_fcntl.o)
 .debug_info    0x0007742e      0x459 ../server1_bsp/\libucosii_bsp.a(alt_find_file.o)
 .debug_info    0x00077887      0x5eb ../server1_bsp/\libucosii_bsp.a(alt_get_fd.o)
 .debug_info    0x00077e72     0x116c ../server1_bsp/\libucosii_bsp.a(icmp.o)
 .debug_info    0x00078fde      0x181 c:/altera/13.0sp1/nios2eds/bin/gnu/h-i686-mingw32/bin/../lib/gcc/nios2-elf/4.1.2/../../../../nios2-elf/lib\libc.a(lib_a-atexit.o)
 .debug_info    0x0007915f      0x960 c:/altera/13.0sp1/nios2eds/bin/gnu/h-i686-mingw32/bin/../lib/gcc/nios2-elf/4.1.2/../../../../nios2-elf/lib\libc.a(lib_a-atoi.o)
 .debug_info    0x00079abf      0x954 c:/altera/13.0sp1/nios2eds/bin/gnu/h-i686-mingw32/bin/../lib/gcc/nios2-elf/4.1.2/../../../../nios2-elf/lib\libc.a(lib_a-calloc.o)
 .debug_info    0x0007a413      0x96e c:/altera/13.0sp1/nios2eds/bin/gnu/h-i686-mingw32/bin/../lib/gcc/nios2-elf/4.1.2/../../../../nios2-elf/lib\libc.a(lib_a-malloc.o)
 .debug_info    0x0007ad81      0x115 c:/altera/13.0sp1/nios2eds/bin/gnu/h-i686-mingw32/bin/../lib/gcc/nios2-elf/4.1.2/../../../../nios2-elf/lib\libc.a(lib_a-memcmp.o)
 .debug_info    0x0007ae96      0x110 c:/altera/13.0sp1/nios2eds/bin/gnu/h-i686-mingw32/bin/../lib/gcc/nios2-elf/4.1.2/../../../../nios2-elf/lib\libc.a(lib_a-strcpy.o)
 .debug_info    0x0007afa6       0xf5 c:/altera/13.0sp1/nios2eds/bin/gnu/h-i686-mingw32/bin/../lib/gcc/nios2-elf/4.1.2/../../../../nios2-elf/lib\libc.a(lib_a-strncmp.o)
 .debug_info    0x0007b09b      0x12a c:/altera/13.0sp1/nios2eds/bin/gnu/h-i686-mingw32/bin/../lib/gcc/nios2-elf/4.1.2/../../../../nios2-elf/lib\libc.a(lib_a-strncpy.o)
 .debug_info    0x0007b1c5      0xa2a c:/altera/13.0sp1/nios2eds/bin/gnu/h-i686-mingw32/bin/../lib/gcc/nios2-elf/4.1.2/../../../../nios2-elf/lib\libc.a(lib_a-strtol.o)
 .debug_info    0x0007bbef      0x9aa c:/altera/13.0sp1/nios2eds/bin/gnu/h-i686-mingw32/bin/../lib/gcc/nios2-elf/4.1.2/../../../../nios2-elf/lib\libc.a(lib_a-vprintf.o)
 .debug_info    0x0007c599      0x9ed c:/altera/13.0sp1/nios2eds/bin/gnu/h-i686-mingw32/bin/../lib/gcc/nios2-elf/4.1.2/../../../../nios2-elf/lib\libc.a(lib_a-vsprintf.o)
 .debug_info    0x0007cf86      0x99c c:/altera/13.0sp1/nios2eds/bin/gnu/h-i686-mingw32/bin/../lib/gcc/nios2-elf/4.1.2/../../../../nios2-elf/lib\libc.a(lib_a-__atexit.o)

.debug_abbrev   0x00000000    0x12cac
 *(.debug_abbrev)
 .debug_abbrev  0x00000000       0x14 ../server1_bsp//obj/HAL/src/crt0.o
 .debug_abbrev  0x00000014       0xa9 obj/default/LCD.o
 .debug_abbrev  0x000000bd      0x15c obj/default/SSS_DE2_115.o
 .debug_abbrev  0x00000219      0x1f1 obj/default/alt_error_handler.o
 .debug_abbrev  0x0000040a      0x231 obj/default/dm9000a.o
 .debug_abbrev  0x0000063b      0x18d obj/default/iniche_init.o
 .debug_abbrev  0x000007c8       0xf5 obj/default/led.o
 .debug_abbrev  0x000008bd      0x282 obj/default/network_utilities.o
 .debug_abbrev  0x00000b3f      0x1c4 obj/default/simple_socket_server.o
 .debug_abbrev  0x00000d03        0x1 obj/default/tse_my_system.o
 .debug_abbrev  0x00000d04       0x5d c:/altera/13.0sp1/nios2eds/bin/gnu/h-i686-mingw32/bin/../lib/gcc/nios2-elf/4.1.2\libgcc.a(_fixunsdfsi.o)
 .debug_abbrev  0x00000d61      0x13d c:/altera/13.0sp1/nios2eds/bin/gnu/h-i686-mingw32/bin/../lib/gcc/nios2-elf/4.1.2\libgcc.a(_si_to_sf.o)
 .debug_abbrev  0x00000e9e      0x176 c:/altera/13.0sp1/nios2eds/bin/gnu/h-i686-mingw32/bin/../lib/gcc/nios2-elf/4.1.2\libgcc.a(_sf_to_si.o)
 .debug_abbrev  0x00001014      0x155 c:/altera/13.0sp1/nios2eds/bin/gnu/h-i686-mingw32/bin/../lib/gcc/nios2-elf/4.1.2\libgcc.a(_usi_to_sf.o)
 .debug_abbrev  0x00001169      0x1d2 c:/altera/13.0sp1/nios2eds/bin/gnu/h-i686-mingw32/bin/../lib/gcc/nios2-elf/4.1.2\libgcc.a(_addsub_df.o)
 .debug_abbrev  0x0000133b      0x204 c:/altera/13.0sp1/nios2eds/bin/gnu/h-i686-mingw32/bin/../lib/gcc/nios2-elf/4.1.2\libgcc.a(_mul_df.o)
 .debug_abbrev  0x0000153f      0x151 c:/altera/13.0sp1/nios2eds/bin/gnu/h-i686-mingw32/bin/../lib/gcc/nios2-elf/4.1.2\libgcc.a(_ge_df.o)
 .debug_abbrev  0x00001690      0x176 c:/altera/13.0sp1/nios2eds/bin/gnu/h-i686-mingw32/bin/../lib/gcc/nios2-elf/4.1.2\libgcc.a(_df_to_si.o)
 .debug_abbrev  0x00001806       0xba c:/altera/13.0sp1/nios2eds/bin/gnu/h-i686-mingw32/bin/../lib/gcc/nios2-elf/4.1.2\libgcc.a(_thenan_df.o)
 .debug_abbrev  0x000018c0      0x155 c:/altera/13.0sp1/nios2eds/bin/gnu/h-i686-mingw32/bin/../lib/gcc/nios2-elf/4.1.2\libgcc.a(_usi_to_df.o)
 .debug_abbrev  0x00001a15       0xee c:/altera/13.0sp1/nios2eds/bin/gnu/h-i686-mingw32/bin/../lib/gcc/nios2-elf/4.1.2\libgcc.a(_muldi3.o)
 .debug_abbrev  0x00001b03       0xb9 c:/altera/13.0sp1/nios2eds/bin/gnu/h-i686-mingw32/bin/../lib/gcc/nios2-elf/4.1.2\libgcc.a(_clzsi2.o)
 .debug_abbrev  0x00001bbc      0x1aa c:/altera/13.0sp1/nios2eds/bin/gnu/h-i686-mingw32/bin/../lib/gcc/nios2-elf/4.1.2\libgcc.a(_pack_sf.o)
 .debug_abbrev  0x00001d66      0x158 c:/altera/13.0sp1/nios2eds/bin/gnu/h-i686-mingw32/bin/../lib/gcc/nios2-elf/4.1.2\libgcc.a(_unpack_sf.o)
 .debug_abbrev  0x00001ebe      0x1b1 c:/altera/13.0sp1/nios2eds/bin/gnu/h-i686-mingw32/bin/../lib/gcc/nios2-elf/4.1.2\libgcc.a(_pack_df.o)
 .debug_abbrev  0x0000206f      0x149 c:/altera/13.0sp1/nios2eds/bin/gnu/h-i686-mingw32/bin/../lib/gcc/nios2-elf/4.1.2\libgcc.a(_unpack_df.o)
 .debug_abbrev  0x000021b8      0x132 c:/altera/13.0sp1/nios2eds/bin/gnu/h-i686-mingw32/bin/../lib/gcc/nios2-elf/4.1.2\libgcc.a(_fpcmp_parts_df.o)
 .debug_abbrev  0x000022ea       0x61 c:/altera/13.0sp1/nios2eds/bin/gnu/h-i686-mingw32/bin/../lib/gcc/nios2-elf/4.1.2\libgcc.a(_clz.o)
 .debug_abbrev  0x0000234b       0x61 c:/altera/13.0sp1/nios2eds/bin/gnu/h-i686-mingw32/bin/../lib/gcc/nios2-elf/4.1.2/../../../../nios2-elf/lib\libc.a(lib_a-ctype_.o)
 .debug_abbrev  0x000023ac      0x16e c:/altera/13.0sp1/nios2eds/bin/gnu/h-i686-mingw32/bin/../lib/gcc/nios2-elf/4.1.2/../../../../nios2-elf/lib\libc.a(lib_a-exit.o)
 .debug_abbrev  0x0000251a      0x197 c:/altera/13.0sp1/nios2eds/bin/gnu/h-i686-mingw32/bin/../lib/gcc/nios2-elf/4.1.2/../../../../nios2-elf/lib\libc.a(lib_a-fprintf.o)
 .debug_abbrev  0x000026b1      0x1b1 c:/altera/13.0sp1/nios2eds/bin/gnu/h-i686-mingw32/bin/../lib/gcc/nios2-elf/4.1.2/../../../../nios2-elf/lib\libc.a(lib_a-fwrite.o)
 .debug_abbrev  0x00002862      0x17f c:/altera/13.0sp1/nios2eds/bin/gnu/h-i686-mingw32/bin/../lib/gcc/nios2-elf/4.1.2/../../../../nios2-elf/lib\libc.a(lib_a-getc.o)
 .debug_abbrev  0x000029e1      0x157 c:/altera/13.0sp1/nios2eds/bin/gnu/h-i686-mingw32/bin/../lib/gcc/nios2-elf/4.1.2/../../../../nios2-elf/lib\libc.a(lib_a-impure.o)
 .debug_abbrev  0x00002b38       0xb5 c:/altera/13.0sp1/nios2eds/bin/gnu/h-i686-mingw32/bin/../lib/gcc/nios2-elf/4.1.2/../../../../nios2-elf/lib\libc.a(lib_a-memcpy.o)
 .debug_abbrev  0x00002bed       0xb5 c:/altera/13.0sp1/nios2eds/bin/gnu/h-i686-mingw32/bin/../lib/gcc/nios2-elf/4.1.2/../../../../nios2-elf/lib\libc.a(lib_a-memmove.o)
 .debug_abbrev  0x00002ca2       0xb8 c:/altera/13.0sp1/nios2eds/bin/gnu/h-i686-mingw32/bin/../lib/gcc/nios2-elf/4.1.2/../../../../nios2-elf/lib\libc.a(lib_a-memset.o)
 .debug_abbrev  0x00002d5a      0x194 c:/altera/13.0sp1/nios2eds/bin/gnu/h-i686-mingw32/bin/../lib/gcc/nios2-elf/4.1.2/../../../../nios2-elf/lib\libc.a(lib_a-perror.o)
 .debug_abbrev  0x00002eee      0x191 c:/altera/13.0sp1/nios2eds/bin/gnu/h-i686-mingw32/bin/../lib/gcc/nios2-elf/4.1.2/../../../../nios2-elf/lib\libc.a(lib_a-printf.o)
 .debug_abbrev  0x0000307f      0x17f c:/altera/13.0sp1/nios2eds/bin/gnu/h-i686-mingw32/bin/../lib/gcc/nios2-elf/4.1.2/../../../../nios2-elf/lib\libc.a(lib_a-putc.o)
 .debug_abbrev  0x000031fe      0x170 c:/altera/13.0sp1/nios2eds/bin/gnu/h-i686-mingw32/bin/../lib/gcc/nios2-elf/4.1.2/../../../../nios2-elf/lib\libc.a(lib_a-putchar.o)
 .debug_abbrev  0x0000336e      0x1ac c:/altera/13.0sp1/nios2eds/bin/gnu/h-i686-mingw32/bin/../lib/gcc/nios2-elf/4.1.2/../../../../nios2-elf/lib\libc.a(lib_a-puts.o)
 .debug_abbrev  0x0000351a      0x189 c:/altera/13.0sp1/nios2eds/bin/gnu/h-i686-mingw32/bin/../lib/gcc/nios2-elf/4.1.2/../../../../nios2-elf/lib\libc.a(lib_a-rget.o)
 .debug_abbrev  0x000036a3      0x191 c:/altera/13.0sp1/nios2eds/bin/gnu/h-i686-mingw32/bin/../lib/gcc/nios2-elf/4.1.2/../../../../nios2-elf/lib\libc.a(lib_a-sprintf.o)
 .debug_abbrev  0x00003834       0x80 c:/altera/13.0sp1/nios2eds/bin/gnu/h-i686-mingw32/bin/../lib/gcc/nios2-elf/4.1.2/../../../../nios2-elf/lib\libc.a(lib_a-strchr.o)
 .debug_abbrev  0x000038b4       0x68 c:/altera/13.0sp1/nios2eds/bin/gnu/h-i686-mingw32/bin/../lib/gcc/nios2-elf/4.1.2/../../../../nios2-elf/lib\libc.a(lib_a-strerror.o)
 .debug_abbrev  0x0000391c       0x8b c:/altera/13.0sp1/nios2eds/bin/gnu/h-i686-mingw32/bin/../lib/gcc/nios2-elf/4.1.2/../../../../nios2-elf/lib\libc.a(lib_a-strlen.o)
 .debug_abbrev  0x000039a7       0x5b c:/altera/13.0sp1/nios2eds/bin/gnu/h-i686-mingw32/bin/../lib/gcc/nios2-elf/4.1.2/../../../../nios2-elf/lib\libc.a(lib_a-u_strerr.o)
 .debug_abbrev  0x00003a02      0x30a c:/altera/13.0sp1/nios2eds/bin/gnu/h-i686-mingw32/bin/../lib/gcc/nios2-elf/4.1.2/../../../../nios2-elf/lib\libc.a(lib_a-vfprintf.o)
 .debug_abbrev  0x00003d0c      0x198 c:/altera/13.0sp1/nios2eds/bin/gnu/h-i686-mingw32/bin/../lib/gcc/nios2-elf/4.1.2/../../../../nios2-elf/lib\libc.a(lib_a-wbuf.o)
 .debug_abbrev  0x00003ea4      0x170 c:/altera/13.0sp1/nios2eds/bin/gnu/h-i686-mingw32/bin/../lib/gcc/nios2-elf/4.1.2/../../../../nios2-elf/lib\libc.a(lib_a-wsetup.o)
 .debug_abbrev  0x00004014      0x1de c:/altera/13.0sp1/nios2eds/bin/gnu/h-i686-mingw32/bin/../lib/gcc/nios2-elf/4.1.2/../../../../nios2-elf/lib\libc.a(lib_a-__call_atexit.o)
 .debug_abbrev  0x000041f2      0x232 c:/altera/13.0sp1/nios2eds/bin/gnu/h-i686-mingw32/bin/../lib/gcc/nios2-elf/4.1.2/../../../../nios2-elf/lib\libc.a(lib_a-dtoa.o)
 .debug_abbrev  0x00004424      0x1c6 c:/altera/13.0sp1/nios2eds/bin/gnu/h-i686-mingw32/bin/../lib/gcc/nios2-elf/4.1.2/../../../../nios2-elf/lib\libc.a(lib_a-fflush.o)
 .debug_abbrev  0x000045ea      0x24c c:/altera/13.0sp1/nios2eds/bin/gnu/h-i686-mingw32/bin/../lib/gcc/nios2-elf/4.1.2/../../../../nios2-elf/lib\libc.a(lib_a-findfp.o)
 .debug_abbrev  0x00004836      0x18c c:/altera/13.0sp1/nios2eds/bin/gnu/h-i686-mingw32/bin/../lib/gcc/nios2-elf/4.1.2/../../../../nios2-elf/lib\libc.a(lib_a-fputc.o)
 .debug_abbrev  0x000049c2      0x1aa c:/altera/13.0sp1/nios2eds/bin/gnu/h-i686-mingw32/bin/../lib/gcc/nios2-elf/4.1.2/../../../../nios2-elf/lib\libc.a(lib_a-fputs.o)
 .debug_abbrev  0x00004b6c      0x1d9 c:/altera/13.0sp1/nios2eds/bin/gnu/h-i686-mingw32/bin/../lib/gcc/nios2-elf/4.1.2/../../../../nios2-elf/lib\libc.a(lib_a-freer.o)
 .debug_abbrev  0x00004d45      0x1a3 c:/altera/13.0sp1/nios2eds/bin/gnu/h-i686-mingw32/bin/../lib/gcc/nios2-elf/4.1.2/../../../../nios2-elf/lib\libc.a(lib_a-fvwrite.o)
 .debug_abbrev  0x00004ee8      0x1e3 c:/altera/13.0sp1/nios2eds/bin/gnu/h-i686-mingw32/bin/../lib/gcc/nios2-elf/4.1.2/../../../../nios2-elf/lib\libc.a(lib_a-fwalk.o)
 .debug_abbrev  0x000050cb      0x1ed c:/altera/13.0sp1/nios2eds/bin/gnu/h-i686-mingw32/bin/../lib/gcc/nios2-elf/4.1.2/../../../../nios2-elf/lib\libc.a(lib_a-locale.o)
 .debug_abbrev  0x000052b8      0x197 c:/altera/13.0sp1/nios2eds/bin/gnu/h-i686-mingw32/bin/../lib/gcc/nios2-elf/4.1.2/../../../../nios2-elf/lib\libc.a(lib_a-makebuf.o)
 .debug_abbrev  0x0000544f      0x216 c:/altera/13.0sp1/nios2eds/bin/gnu/h-i686-mingw32/bin/../lib/gcc/nios2-elf/4.1.2/../../../../nios2-elf/lib\libc.a(lib_a-mallocr.o)
 .debug_abbrev  0x00005665       0xb5 c:/altera/13.0sp1/nios2eds/bin/gnu/h-i686-mingw32/bin/../lib/gcc/nios2-elf/4.1.2/../../../../nios2-elf/lib\libc.a(lib_a-memchr.o)
 .debug_abbrev  0x0000571a      0x297 c:/altera/13.0sp1/nios2eds/bin/gnu/h-i686-mingw32/bin/../lib/gcc/nios2-elf/4.1.2/../../../../nios2-elf/lib\libc.a(lib_a-mprec.o)
 .debug_abbrev  0x000059b1      0x1c3 c:/altera/13.0sp1/nios2eds/bin/gnu/h-i686-mingw32/bin/../lib/gcc/nios2-elf/4.1.2/../../../../nios2-elf/lib\libc.a(lib_a-reallocr.o)
 .debug_abbrev  0x00005b74      0x187 c:/altera/13.0sp1/nios2eds/bin/gnu/h-i686-mingw32/bin/../lib/gcc/nios2-elf/4.1.2/../../../../nios2-elf/lib\libc.a(lib_a-refill.o)
 .debug_abbrev  0x00005cfb       0x79 c:/altera/13.0sp1/nios2eds/bin/gnu/h-i686-mingw32/bin/../lib/gcc/nios2-elf/4.1.2/../../../../nios2-elf/lib\libc.a(lib_a-s_isinfd.o)
 .debug_abbrev  0x00005d74       0x79 c:/altera/13.0sp1/nios2eds/bin/gnu/h-i686-mingw32/bin/../lib/gcc/nios2-elf/4.1.2/../../../../nios2-elf/lib\libc.a(lib_a-s_isnand.o)
 .debug_abbrev  0x00005ded      0x18c c:/altera/13.0sp1/nios2eds/bin/gnu/h-i686-mingw32/bin/../lib/gcc/nios2-elf/4.1.2/../../../../nios2-elf/lib\libc.a(lib_a-sbrkr.o)
 .debug_abbrev  0x00005f79      0x1c9 c:/altera/13.0sp1/nios2eds/bin/gnu/h-i686-mingw32/bin/../lib/gcc/nios2-elf/4.1.2/../../../../nios2-elf/lib\libc.a(lib_a-stdio.o)
 .debug_abbrev  0x00006142       0x80 c:/altera/13.0sp1/nios2eds/bin/gnu/h-i686-mingw32/bin/../lib/gcc/nios2-elf/4.1.2/../../../../nios2-elf/lib\libc.a(lib_a-strcmp.o)
 .debug_abbrev  0x000061c2      0x184 c:/altera/13.0sp1/nios2eds/bin/gnu/h-i686-mingw32/bin/../lib/gcc/nios2-elf/4.1.2/../../../../nios2-elf/lib\libc.a(lib_a-writer.o)
 .debug_abbrev  0x00006346      0x1b8 c:/altera/13.0sp1/nios2eds/bin/gnu/h-i686-mingw32/bin/../lib/gcc/nios2-elf/4.1.2/../../../../nios2-elf/lib\libc.a(lib_a-callocr.o)
 .debug_abbrev  0x000064fe      0x17f c:/altera/13.0sp1/nios2eds/bin/gnu/h-i686-mingw32/bin/../lib/gcc/nios2-elf/4.1.2/../../../../nios2-elf/lib\libc.a(lib_a-closer.o)
 .debug_abbrev  0x0000667d      0x1a7 c:/altera/13.0sp1/nios2eds/bin/gnu/h-i686-mingw32/bin/../lib/gcc/nios2-elf/4.1.2/../../../../nios2-elf/lib\libc.a(lib_a-fclose.o)
 .debug_abbrev  0x00006824      0x18e c:/altera/13.0sp1/nios2eds/bin/gnu/h-i686-mingw32/bin/../lib/gcc/nios2-elf/4.1.2/../../../../nios2-elf/lib\libc.a(lib_a-fstatr.o)
 .debug_abbrev  0x000069b2       0x3b c:/altera/13.0sp1/nios2eds/bin/gnu/h-i686-mingw32/bin/../lib/gcc/nios2-elf/4.1.2/../../../../nios2-elf/lib\libc.a(lib_a-int_errno.o)
 .debug_abbrev  0x000069ed      0x17f c:/altera/13.0sp1/nios2eds/bin/gnu/h-i686-mingw32/bin/../lib/gcc/nios2-elf/4.1.2/../../../../nios2-elf/lib\libc.a(lib_a-isattyr.o)
 .debug_abbrev  0x00006b6c      0x18e c:/altera/13.0sp1/nios2eds/bin/gnu/h-i686-mingw32/bin/../lib/gcc/nios2-elf/4.1.2/../../../../nios2-elf/lib\libc.a(lib_a-lseekr.o)
 .debug_abbrev  0x00006cfa      0x17f c:/altera/13.0sp1/nios2eds/bin/gnu/h-i686-mingw32/bin/../lib/gcc/nios2-elf/4.1.2/../../../../nios2-elf/lib\libc.a(lib_a-readr.o)
 .debug_abbrev  0x00006e79      0x16b c:/altera/13.0sp1/nios2eds/bin/gnu/h-i686-mingw32/bin/../lib/gcc/nios2-elf/4.1.2\libgcc.a(_udivdi3.o)
 .debug_abbrev  0x00006fe4      0x18e c:/altera/13.0sp1/nios2eds/bin/gnu/h-i686-mingw32/bin/../lib/gcc/nios2-elf/4.1.2\libgcc.a(_umoddi3.o)
 .debug_abbrev  0x00007172      0x1e3 c:/altera/13.0sp1/nios2eds/bin/gnu/h-i686-mingw32/bin/../lib/gcc/nios2-elf/4.1.2\libgcc.a(_div_df.o)
 .debug_abbrev  0x00007355      0x151 c:/altera/13.0sp1/nios2eds/bin/gnu/h-i686-mingw32/bin/../lib/gcc/nios2-elf/4.1.2\libgcc.a(_eq_df.o)
 .debug_abbrev  0x000074a6      0x151 c:/altera/13.0sp1/nios2eds/bin/gnu/h-i686-mingw32/bin/../lib/gcc/nios2-elf/4.1.2\libgcc.a(_ne_df.o)
 .debug_abbrev  0x000075f7      0x151 c:/altera/13.0sp1/nios2eds/bin/gnu/h-i686-mingw32/bin/../lib/gcc/nios2-elf/4.1.2\libgcc.a(_gt_df.o)
 .debug_abbrev  0x00007748      0x151 c:/altera/13.0sp1/nios2eds/bin/gnu/h-i686-mingw32/bin/../lib/gcc/nios2-elf/4.1.2\libgcc.a(_lt_df.o)
 .debug_abbrev  0x00007899      0x13f c:/altera/13.0sp1/nios2eds/bin/gnu/h-i686-mingw32/bin/../lib/gcc/nios2-elf/4.1.2\libgcc.a(_si_to_df.o)
 .debug_abbrev  0x000079d8       0xe0 c:/altera/13.0sp1/nios2eds/bin/gnu/h-i686-mingw32/bin/../lib/gcc/nios2-elf/4.1.2\libgcc.a(lib2-divmod.o)
 .debug_abbrev  0x00007ab8       0xaa ../server1_bsp/\libucosii_bsp.a(alt_exit.o)
 .debug_abbrev  0x00007b62      0x128 ../server1_bsp/\libucosii_bsp.a(alt_flash_dev.o)
 .debug_abbrev  0x00007c8a      0x102 ../server1_bsp/\libucosii_bsp.a(alt_fstat.o)
 .debug_abbrev  0x00007d8c      0x180 ../server1_bsp/\libucosii_bsp.a(alt_irq_register.o)
 .debug_abbrev  0x00007f0c       0x44 ../server1_bsp/\libucosii_bsp.a(alt_irq_vars.o)
 .debug_abbrev  0x00007f50      0x102 ../server1_bsp/\libucosii_bsp.a(alt_isatty.o)
 .debug_abbrev  0x00008052      0x102 ../server1_bsp/\libucosii_bsp.a(alt_lseek.o)
 .debug_abbrev  0x00008154      0x120 ../server1_bsp/\libucosii_bsp.a(alt_main.o)
 .debug_abbrev  0x00008274      0x115 ../server1_bsp/\libucosii_bsp.a(alt_sbrk.o)
 .debug_abbrev  0x00008389       0xb7 ../server1_bsp/\libucosii_bsp.a(alt_usleep.o)
 .debug_abbrev  0x00008440      0x1b3 ../server1_bsp/\libucosii_bsp.a(alt_env_lock.o)
 .debug_abbrev  0x000085f3      0x234 ../server1_bsp/\libucosii_bsp.a(alt_malloc_lock.o)
 .debug_abbrev  0x00008827      0x2aa ../server1_bsp/\libucosii_bsp.a(os_core.o)
 .debug_abbrev  0x00008ad1      0x114 ../server1_bsp/\libucosii_bsp.a(os_dbg.o)
 .debug_abbrev  0x00008be5      0x21b ../server1_bsp/\libucosii_bsp.a(os_flag.o)
 .debug_abbrev  0x00008e00      0x235 ../server1_bsp/\libucosii_bsp.a(os_mem.o)
 .debug_abbrev  0x00009035      0x20d ../server1_bsp/\libucosii_bsp.a(os_q.o)
 .debug_abbrev  0x00009242      0x20d ../server1_bsp/\libucosii_bsp.a(os_sem.o)
 .debug_abbrev  0x0000944f      0x20e ../server1_bsp/\libucosii_bsp.a(os_task.o)
 .debug_abbrev  0x0000965d      0x1de ../server1_bsp/\libucosii_bsp.a(os_time.o)
 .debug_abbrev  0x0000983b      0x1c8 ../server1_bsp/\libucosii_bsp.a(alt_sys_init.o)
 .debug_abbrev  0x00009a03      0x1bf ../server1_bsp/\libucosii_bsp.a(altera_avalon_cfi_flash.o)
 .debug_abbrev  0x00009bc2      0x185 ../server1_bsp/\libucosii_bsp.a(altera_avalon_cfi_flash_table.o)
 .debug_abbrev  0x00009d47      0x1bf ../server1_bsp/\libucosii_bsp.a(altera_avalon_epcs_flash_controller.o)
 .debug_abbrev  0x00009f06      0x13c ../server1_bsp/\libucosii_bsp.a(altera_avalon_jtag_uart_fd.o)
 .debug_abbrev  0x0000a042      0x21e ../server1_bsp/\libucosii_bsp.a(altera_avalon_jtag_uart_init.o)
 .debug_abbrev  0x0000a260      0x135 ../server1_bsp/\libucosii_bsp.a(altera_avalon_jtag_uart_ioctl.o)
 .debug_abbrev  0x0000a395      0x1ee ../server1_bsp/\libucosii_bsp.a(altera_avalon_jtag_uart_read.o)
 .debug_abbrev  0x0000a583      0x1ea ../server1_bsp/\libucosii_bsp.a(altera_avalon_jtag_uart_write.o)
 .debug_abbrev  0x0000a76d      0x235 ../server1_bsp/\libucosii_bsp.a(altera_avalon_lcd_16207.o)
 .debug_abbrev  0x0000a9a2      0x12f ../server1_bsp/\libucosii_bsp.a(altera_avalon_lcd_16207_fd.o)
 .debug_abbrev  0x0000aad1      0x137 ../server1_bsp/\libucosii_bsp.a(altera_avalon_timer_sc.o)
 .debug_abbrev  0x0000ac08      0x124 ../server1_bsp/\libucosii_bsp.a(altera_avalon_uart_fd.o)
 .debug_abbrev  0x0000ad2c      0x204 ../server1_bsp/\libucosii_bsp.a(altera_avalon_uart_init.o)
 .debug_abbrev  0x0000af30      0x1b9 ../server1_bsp/\libucosii_bsp.a(altera_avalon_uart_read.o)
 .debug_abbrev  0x0000b0e9      0x1c0 ../server1_bsp/\libucosii_bsp.a(altera_avalon_uart_write.o)
 .debug_abbrev  0x0000b2a9      0x145 ../server1_bsp/\libucosii_bsp.a(epcs_commands.o)
 .debug_abbrev  0x0000b3ee       0x77 ../server1_bsp/\libucosii_bsp.a(alt_iniche_close.o)
 .debug_abbrev  0x0000b465      0x11f ../server1_bsp/\libucosii_bsp.a(alt_iniche_dev.o)
 .debug_abbrev  0x0000b584       0x7e ../server1_bsp/\libucosii_bsp.a(alt_iniche_read.o)
 .debug_abbrev  0x0000b602       0x85 ../server1_bsp/\libucosii_bsp.a(alt_iniche_write.o)
 .debug_abbrev  0x0000b687      0x184 ../server1_bsp/\libucosii_bsp.a(ipnet.o)
 .debug_abbrev  0x0000b80b      0x18b ../server1_bsp/\libucosii_bsp.a(ipstart.o)
 .debug_abbrev  0x0000b996      0x191 ../server1_bsp/\libucosii_bsp.a(igmp_cmn.o)
 .debug_abbrev  0x0000bb27      0x1a3 ../server1_bsp/\libucosii_bsp.a(bsdsock.o)
 .debug_abbrev  0x0000bcca       0x96 ../server1_bsp/\libucosii_bsp.a(cksum.o)
 .debug_abbrev  0x0000bd60      0x18b ../server1_bsp/\libucosii_bsp.a(in_utils.o)
 .debug_abbrev  0x0000beeb      0x152 ../server1_bsp/\libucosii_bsp.a(netmain.o)
 .debug_abbrev  0x0000c03d      0x154 ../server1_bsp/\libucosii_bsp.a(parseip.o)
 .debug_abbrev  0x0000c191      0x144 ../server1_bsp/\libucosii_bsp.a(tk_crnos.o)
 .debug_abbrev  0x0000c2d5      0x217 ../server1_bsp/\libucosii_bsp.a(dhcpclnt.o)
 .debug_abbrev  0x0000c4ec       0x8f ../server1_bsp/\libucosii_bsp.a(dhcputil.o)
 .debug_abbrev  0x0000c57b      0x196 ../server1_bsp/\libucosii_bsp.a(pktalloc.o)
 .debug_abbrev  0x0000c711       0xcb ../server1_bsp/\libucosii_bsp.a(q.o)
 .debug_abbrev  0x0000c7dc      0x144 ../server1_bsp/\libucosii_bsp.a(udp_open.o)
 .debug_abbrev  0x0000c920       0x14 ../server1_bsp/\libucosii_bsp.a(asm_cksum.o)
 .debug_abbrev  0x0000c934      0x242 ../server1_bsp/\libucosii_bsp.a(brdutils.o)
 .debug_abbrev  0x0000cb76      0x194 ../server1_bsp/\libucosii_bsp.a(osportco.o)
 .debug_abbrev  0x0000cd0a      0x199 ../server1_bsp/\libucosii_bsp.a(targnios.o)
 .debug_abbrev  0x0000cea3      0x1dc ../server1_bsp/\libucosii_bsp.a(nptcp.o)
 .debug_abbrev  0x0000d07f      0x136 ../server1_bsp/\libucosii_bsp.a(rawsock.o)
 .debug_abbrev  0x0000d1b5      0x1de ../server1_bsp/\libucosii_bsp.a(sockcall.o)
 .debug_abbrev  0x0000d393      0x1ef ../server1_bsp/\libucosii_bsp.a(socket.o)
 .debug_abbrev  0x0000d582      0x1ac ../server1_bsp/\libucosii_bsp.a(socket2.o)
 .debug_abbrev  0x0000d72e      0x17f ../server1_bsp/\libucosii_bsp.a(soselect.o)
 .debug_abbrev  0x0000d8ad      0x1ca ../server1_bsp/\libucosii_bsp.a(tcp_in.o)
 .debug_abbrev  0x0000da77      0x1a4 ../server1_bsp/\libucosii_bsp.a(tcp_out.o)
 .debug_abbrev  0x0000dc1b      0x1c3 ../server1_bsp/\libucosii_bsp.a(tcp_subr.o)
 .debug_abbrev  0x0000ddde      0x19e ../server1_bsp/\libucosii_bsp.a(tcp_timr.o)
 .debug_abbrev  0x0000df7c      0x175 ../server1_bsp/\libucosii_bsp.a(tcp_usr.o)
 .debug_abbrev  0x0000e0f1       0x77 ../server1_bsp/\libucosii_bsp.a(tcpport.o)
 .debug_abbrev  0x0000e168      0x190 ../server1_bsp/\libucosii_bsp.a(udpsock.o)
 .debug_abbrev  0x0000e2f8      0x172 ../server1_bsp/\libucosii_bsp.a(alt_alarm_start.o)
 .debug_abbrev  0x0000e46a       0x6c ../server1_bsp/\libucosii_bsp.a(alt_busy_sleep.o)
 .debug_abbrev  0x0000e4d6      0x102 ../server1_bsp/\libucosii_bsp.a(alt_close.o)
 .debug_abbrev  0x0000e5d8       0x7a ../server1_bsp/\libucosii_bsp.a(alt_dcache_flush.o)
 .debug_abbrev  0x0000e652      0x10a ../server1_bsp/\libucosii_bsp.a(alt_dev.o)
 .debug_abbrev  0x0000e75c       0xf6 ../server1_bsp/\libucosii_bsp.a(alt_dev_llist_insert.o)
 .debug_abbrev  0x0000e852       0x76 ../server1_bsp/\libucosii_bsp.a(alt_do_ctors.o)
 .debug_abbrev  0x0000e8c8       0x76 ../server1_bsp/\libucosii_bsp.a(alt_do_dtors.o)
 .debug_abbrev  0x0000e93e       0x5e ../server1_bsp/\libucosii_bsp.a(alt_errno.o)
 .debug_abbrev  0x0000e99c       0xd6 ../server1_bsp/\libucosii_bsp.a(alt_find_dev.o)
 .debug_abbrev  0x0000ea72      0x134 ../server1_bsp/\libucosii_bsp.a(alt_iic.o)
 .debug_abbrev  0x0000eba6      0x14e ../server1_bsp/\libucosii_bsp.a(alt_iic_isr_register.o)
 .debug_abbrev  0x0000ecf4       0xf7 ../server1_bsp/\libucosii_bsp.a(alt_io_redirect.o)
 .debug_abbrev  0x0000edeb       0x12 ../server1_bsp/\libucosii_bsp.a(alt_irq_entry.o)
 .debug_abbrev  0x0000edfd      0x124 ../server1_bsp/\libucosii_bsp.a(alt_irq_handler.o)
 .debug_abbrev  0x0000ef21      0x119 ../server1_bsp/\libucosii_bsp.a(alt_open.o)
 .debug_abbrev  0x0000f03a      0x102 ../server1_bsp/\libucosii_bsp.a(alt_read.o)
 .debug_abbrev  0x0000f13c       0xd3 ../server1_bsp/\libucosii_bsp.a(alt_release_fd.o)
 .debug_abbrev  0x0000f20f       0x74 ../server1_bsp/\libucosii_bsp.a(alt_remap_cached.o)
 .debug_abbrev  0x0000f283       0x74 ../server1_bsp/\libucosii_bsp.a(alt_remap_uncached.o)
 .debug_abbrev  0x0000f2f7      0x150 ../server1_bsp/\libucosii_bsp.a(alt_tick.o)
 .debug_abbrev  0x0000f447      0x107 ../server1_bsp/\libucosii_bsp.a(alt_write.o)
 .debug_abbrev  0x0000f54e       0x3f ../server1_bsp/\libucosii_bsp.a(altera_nios2_qsys_irq.o)
 .debug_abbrev  0x0000f58d       0x14 ../server1_bsp/\libucosii_bsp.a(os_cpu_a.o)
 .debug_abbrev  0x0000f5a1      0x1d0 ../server1_bsp/\libucosii_bsp.a(os_cpu_c.o)
 .debug_abbrev  0x0000f771      0x14d ../server1_bsp/\libucosii_bsp.a(altera_avalon_cfi_flash_amd.o)
 .debug_abbrev  0x0000f8be      0x14d ../server1_bsp/\libucosii_bsp.a(altera_avalon_cfi_flash_intel.o)
 .debug_abbrev  0x0000fa0b       0x7c ../server1_bsp/\libucosii_bsp.a(altera_avalon_spi.o)
 .debug_abbrev  0x0000fa87      0x173 ../server1_bsp/\libucosii_bsp.a(allports.o)
 .debug_abbrev  0x0000fbfa      0x151 ../server1_bsp/\libucosii_bsp.a(timeouts.o)
 .debug_abbrev  0x0000fd4b       0xa4 ../server1_bsp/\libucosii_bsp.a(tk_misc.o)
 .debug_abbrev  0x0000fdef       0x92 ../server1_bsp/\libucosii_bsp.a(alt_iniche_fcntl.o)
 .debug_abbrev  0x0000fe81      0x1eb ../server1_bsp/\libucosii_bsp.a(et_arp.o)
 .debug_abbrev  0x0001006c      0x13d ../server1_bsp/\libucosii_bsp.a(iface.o)
 .debug_abbrev  0x000101a9      0x1ed ../server1_bsp/\libucosii_bsp.a(ip.o)
 .debug_abbrev  0x00010396      0x1ca ../server1_bsp/\libucosii_bsp.a(ip_reasm.o)
 .debug_abbrev  0x00010560      0x166 ../server1_bsp/\libucosii_bsp.a(ipdemux.o)
 .debug_abbrev  0x000106c6      0x114 ../server1_bsp/\libucosii_bsp.a(ipmc.o)
 .debug_abbrev  0x000107da       0xe9 ../server1_bsp/\libucosii_bsp.a(ipport.o)
 .debug_abbrev  0x000108c3      0x19c ../server1_bsp/\libucosii_bsp.a(ipraw.o)
 .debug_abbrev  0x00010a5f      0x156 ../server1_bsp/\libucosii_bsp.a(iproute.o)
 .debug_abbrev  0x00010bb5      0x1c0 ../server1_bsp/\libucosii_bsp.a(udp.o)
 .debug_abbrev  0x00010d75      0x10e ../server1_bsp/\libucosii_bsp.a(igmp.o)
 .debug_abbrev  0x00010e83      0x17a ../server1_bsp/\libucosii_bsp.a(igmp2.o)
 .debug_abbrev  0x00010ffd      0x189 ../server1_bsp/\libucosii_bsp.a(ipopt.o)
 .debug_abbrev  0x00011186      0x15a ../server1_bsp/\libucosii_bsp.a(u_mctest.o)
 .debug_abbrev  0x000112e0      0x12e ../server1_bsp/\libucosii_bsp.a(dhcsetup.o)
 .debug_abbrev  0x0001140e      0x175 ../server1_bsp/\libucosii_bsp.a(memdev.o)
 .debug_abbrev  0x00011583       0xad ../server1_bsp/\libucosii_bsp.a(tcpcksum.o)
 .debug_abbrev  0x00011630      0x19f ../server1_bsp/\libucosii_bsp.a(in_pcb.o)
 .debug_abbrev  0x000117cf      0x1b6 ../server1_bsp/\libucosii_bsp.a(vfsfiles.o)
 .debug_abbrev  0x00011985       0x77 ../server1_bsp/\libucosii_bsp.a(vfsport.o)
 .debug_abbrev  0x000119fc       0x12 ../server1_bsp/\libucosii_bsp.a(alt_exception_entry.o)
 .debug_abbrev  0x00011a0e      0x107 ../server1_bsp/\libucosii_bsp.a(alt_fcntl.o)
 .debug_abbrev  0x00011b15       0xd6 ../server1_bsp/\libucosii_bsp.a(alt_find_file.o)
 .debug_abbrev  0x00011beb      0x173 ../server1_bsp/\libucosii_bsp.a(alt_get_fd.o)
 .debug_abbrev  0x00011d5e      0x15d ../server1_bsp/\libucosii_bsp.a(icmp.o)
 .debug_abbrev  0x00011ebb       0xb7 c:/altera/13.0sp1/nios2eds/bin/gnu/h-i686-mingw32/bin/../lib/gcc/nios2-elf/4.1.2/../../../../nios2-elf/lib\libc.a(lib_a-atexit.o)
 .debug_abbrev  0x00011f72      0x176 c:/altera/13.0sp1/nios2eds/bin/gnu/h-i686-mingw32/bin/../lib/gcc/nios2-elf/4.1.2/../../../../nios2-elf/lib\libc.a(lib_a-atoi.o)
 .debug_abbrev  0x000120e8      0x17f c:/altera/13.0sp1/nios2eds/bin/gnu/h-i686-mingw32/bin/../lib/gcc/nios2-elf/4.1.2/../../../../nios2-elf/lib\libc.a(lib_a-calloc.o)
 .debug_abbrev  0x00012267      0x187 c:/altera/13.0sp1/nios2eds/bin/gnu/h-i686-mingw32/bin/../lib/gcc/nios2-elf/4.1.2/../../../../nios2-elf/lib\libc.a(lib_a-malloc.o)
 .debug_abbrev  0x000123ee       0x7c c:/altera/13.0sp1/nios2eds/bin/gnu/h-i686-mingw32/bin/../lib/gcc/nios2-elf/4.1.2/../../../../nios2-elf/lib\libc.a(lib_a-memcmp.o)
 .debug_abbrev  0x0001246a       0x8f c:/altera/13.0sp1/nios2eds/bin/gnu/h-i686-mingw32/bin/../lib/gcc/nios2-elf/4.1.2/../../../../nios2-elf/lib\libc.a(lib_a-strcpy.o)
 .debug_abbrev  0x000124f9       0x8d c:/altera/13.0sp1/nios2eds/bin/gnu/h-i686-mingw32/bin/../lib/gcc/nios2-elf/4.1.2/../../../../nios2-elf/lib\libc.a(lib_a-strncmp.o)
 .debug_abbrev  0x00012586       0x9c c:/altera/13.0sp1/nios2eds/bin/gnu/h-i686-mingw32/bin/../lib/gcc/nios2-elf/4.1.2/../../../../nios2-elf/lib\libc.a(lib_a-strncpy.o)
 .debug_abbrev  0x00012622      0x1c7 c:/altera/13.0sp1/nios2eds/bin/gnu/h-i686-mingw32/bin/../lib/gcc/nios2-elf/4.1.2/../../../../nios2-elf/lib\libc.a(lib_a-strtol.o)
 .debug_abbrev  0x000127e9      0x170 c:/altera/13.0sp1/nios2eds/bin/gnu/h-i686-mingw32/bin/../lib/gcc/nios2-elf/4.1.2/../../../../nios2-elf/lib\libc.a(lib_a-vprintf.o)
 .debug_abbrev  0x00012959      0x1a5 c:/altera/13.0sp1/nios2eds/bin/gnu/h-i686-mingw32/bin/../lib/gcc/nios2-elf/4.1.2/../../../../nios2-elf/lib\libc.a(lib_a-vsprintf.o)
 .debug_abbrev  0x00012afe      0x1ae c:/altera/13.0sp1/nios2eds/bin/gnu/h-i686-mingw32/bin/../lib/gcc/nios2-elf/4.1.2/../../../../nios2-elf/lib\libc.a(lib_a-__atexit.o)

.debug_line     0x00000000    0x42758
 *(.debug_line)
 .debug_line    0x00000000       0x57 ../server1_bsp//obj/HAL/src/crt0.o
 .debug_line    0x00000057      0x345 obj/default/LCD.o
 .debug_line    0x0000039c      0x501 obj/default/SSS_DE2_115.o
 .debug_line    0x0000089d      0x70e obj/default/alt_error_handler.o
 .debug_line    0x00000fab      0xab9 obj/default/dm9000a.o
 .debug_line    0x00001a64      0x74f obj/default/iniche_init.o
 .debug_line    0x000021b3      0x40e obj/default/led.o
 .debug_line    0x000025c1      0x7c8 obj/default/network_utilities.o
 .debug_line    0x00002d89      0x6e9 obj/default/simple_socket_server.o
 .debug_line    0x00003472       0x24 obj/default/tse_my_system.o
 .debug_line    0x00003496       0xff c:/altera/13.0sp1/nios2eds/bin/gnu/h-i686-mingw32/bin/../lib/gcc/nios2-elf/4.1.2\libgcc.a(_fixunsdfsi.o)
 .debug_line    0x00003595      0x187 c:/altera/13.0sp1/nios2eds/bin/gnu/h-i686-mingw32/bin/../lib/gcc/nios2-elf/4.1.2\libgcc.a(_si_to_sf.o)
 .debug_line    0x0000371c      0x141 c:/altera/13.0sp1/nios2eds/bin/gnu/h-i686-mingw32/bin/../lib/gcc/nios2-elf/4.1.2\libgcc.a(_sf_to_si.o)
 .debug_line    0x0000385d      0x183 c:/altera/13.0sp1/nios2eds/bin/gnu/h-i686-mingw32/bin/../lib/gcc/nios2-elf/4.1.2\libgcc.a(_usi_to_sf.o)
 .debug_line    0x000039e0      0x430 c:/altera/13.0sp1/nios2eds/bin/gnu/h-i686-mingw32/bin/../lib/gcc/nios2-elf/4.1.2\libgcc.a(_addsub_df.o)
 .debug_line    0x00003e10      0x3e5 c:/altera/13.0sp1/nios2eds/bin/gnu/h-i686-mingw32/bin/../lib/gcc/nios2-elf/4.1.2\libgcc.a(_mul_df.o)
 .debug_line    0x000041f5      0x129 c:/altera/13.0sp1/nios2eds/bin/gnu/h-i686-mingw32/bin/../lib/gcc/nios2-elf/4.1.2\libgcc.a(_ge_df.o)
 .debug_line    0x0000431e      0x149 c:/altera/13.0sp1/nios2eds/bin/gnu/h-i686-mingw32/bin/../lib/gcc/nios2-elf/4.1.2\libgcc.a(_df_to_si.o)
 .debug_line    0x00004467       0x94 c:/altera/13.0sp1/nios2eds/bin/gnu/h-i686-mingw32/bin/../lib/gcc/nios2-elf/4.1.2\libgcc.a(_thenan_df.o)
 .debug_line    0x000044fb      0x189 c:/altera/13.0sp1/nios2eds/bin/gnu/h-i686-mingw32/bin/../lib/gcc/nios2-elf/4.1.2\libgcc.a(_usi_to_df.o)
 .debug_line    0x00004684      0x11f c:/altera/13.0sp1/nios2eds/bin/gnu/h-i686-mingw32/bin/../lib/gcc/nios2-elf/4.1.2\libgcc.a(_muldi3.o)
 .debug_line    0x000047a3      0x105 c:/altera/13.0sp1/nios2eds/bin/gnu/h-i686-mingw32/bin/../lib/gcc/nios2-elf/4.1.2\libgcc.a(_clzsi2.o)
 .debug_line    0x000048a8      0x1ca c:/altera/13.0sp1/nios2eds/bin/gnu/h-i686-mingw32/bin/../lib/gcc/nios2-elf/4.1.2\libgcc.a(_pack_sf.o)
 .debug_line    0x00004a72      0x197 c:/altera/13.0sp1/nios2eds/bin/gnu/h-i686-mingw32/bin/../lib/gcc/nios2-elf/4.1.2\libgcc.a(_unpack_sf.o)
 .debug_line    0x00004c09      0x222 c:/altera/13.0sp1/nios2eds/bin/gnu/h-i686-mingw32/bin/../lib/gcc/nios2-elf/4.1.2\libgcc.a(_pack_df.o)
 .debug_line    0x00004e2b      0x1e4 c:/altera/13.0sp1/nios2eds/bin/gnu/h-i686-mingw32/bin/../lib/gcc/nios2-elf/4.1.2\libgcc.a(_unpack_df.o)
 .debug_line    0x0000500f      0x187 c:/altera/13.0sp1/nios2eds/bin/gnu/h-i686-mingw32/bin/../lib/gcc/nios2-elf/4.1.2\libgcc.a(_fpcmp_parts_df.o)
 .debug_line    0x00005196       0xaa c:/altera/13.0sp1/nios2eds/bin/gnu/h-i686-mingw32/bin/../lib/gcc/nios2-elf/4.1.2\libgcc.a(_clz.o)
 .debug_line    0x00005240       0x7e c:/altera/13.0sp1/nios2eds/bin/gnu/h-i686-mingw32/bin/../lib/gcc/nios2-elf/4.1.2/../../../../nios2-elf/lib\libc.a(lib_a-ctype_.o)
 .debug_line    0x000052be      0x238 c:/altera/13.0sp1/nios2eds/bin/gnu/h-i686-mingw32/bin/../lib/gcc/nios2-elf/4.1.2/../../../../nios2-elf/lib\libc.a(lib_a-exit.o)
 .debug_line    0x000054f6      0x284 c:/altera/13.0sp1/nios2eds/bin/gnu/h-i686-mingw32/bin/../lib/gcc/nios2-elf/4.1.2/../../../../nios2-elf/lib\libc.a(lib_a-fprintf.o)
 .debug_line    0x0000577a      0x2d9 c:/altera/13.0sp1/nios2eds/bin/gnu/h-i686-mingw32/bin/../lib/gcc/nios2-elf/4.1.2/../../../../nios2-elf/lib\libc.a(lib_a-fwrite.o)
 .debug_line    0x00005a53      0x2a4 c:/altera/13.0sp1/nios2eds/bin/gnu/h-i686-mingw32/bin/../lib/gcc/nios2-elf/4.1.2/../../../../nios2-elf/lib\libc.a(lib_a-getc.o)
 .debug_line    0x00005cf7      0x22d c:/altera/13.0sp1/nios2eds/bin/gnu/h-i686-mingw32/bin/../lib/gcc/nios2-elf/4.1.2/../../../../nios2-elf/lib\libc.a(lib_a-impure.o)
 .debug_line    0x00005f24      0x1ac c:/altera/13.0sp1/nios2eds/bin/gnu/h-i686-mingw32/bin/../lib/gcc/nios2-elf/4.1.2/../../../../nios2-elf/lib\libc.a(lib_a-memcpy.o)
 .debug_line    0x000060d0      0x30a c:/altera/13.0sp1/nios2eds/bin/gnu/h-i686-mingw32/bin/../lib/gcc/nios2-elf/4.1.2/../../../../nios2-elf/lib\libc.a(lib_a-memmove.o)
 .debug_line    0x000063da      0x301 c:/altera/13.0sp1/nios2eds/bin/gnu/h-i686-mingw32/bin/../lib/gcc/nios2-elf/4.1.2/../../../../nios2-elf/lib\libc.a(lib_a-memset.o)
 .debug_line    0x000066db      0x2a4 c:/altera/13.0sp1/nios2eds/bin/gnu/h-i686-mingw32/bin/../lib/gcc/nios2-elf/4.1.2/../../../../nios2-elf/lib\libc.a(lib_a-perror.o)
 .debug_line    0x0000697f      0x29b c:/altera/13.0sp1/nios2eds/bin/gnu/h-i686-mingw32/bin/../lib/gcc/nios2-elf/4.1.2/../../../../nios2-elf/lib\libc.a(lib_a-printf.o)
 .debug_line    0x00006c1a      0x2c4 c:/altera/13.0sp1/nios2eds/bin/gnu/h-i686-mingw32/bin/../lib/gcc/nios2-elf/4.1.2/../../../../nios2-elf/lib\libc.a(lib_a-putc.o)
 .debug_line    0x00006ede      0x264 c:/altera/13.0sp1/nios2eds/bin/gnu/h-i686-mingw32/bin/../lib/gcc/nios2-elf/4.1.2/../../../../nios2-elf/lib\libc.a(lib_a-putchar.o)
 .debug_line    0x00007142      0x2f7 c:/altera/13.0sp1/nios2eds/bin/gnu/h-i686-mingw32/bin/../lib/gcc/nios2-elf/4.1.2/../../../../nios2-elf/lib\libc.a(lib_a-puts.o)
 .debug_line    0x00007439      0x28d c:/altera/13.0sp1/nios2eds/bin/gnu/h-i686-mingw32/bin/../lib/gcc/nios2-elf/4.1.2/../../../../nios2-elf/lib\libc.a(lib_a-rget.o)
 .debug_line    0x000076c6      0x322 c:/altera/13.0sp1/nios2eds/bin/gnu/h-i686-mingw32/bin/../lib/gcc/nios2-elf/4.1.2/../../../../nios2-elf/lib\libc.a(lib_a-sprintf.o)
 .debug_line    0x000079e8      0x2c7 c:/altera/13.0sp1/nios2eds/bin/gnu/h-i686-mingw32/bin/../lib/gcc/nios2-elf/4.1.2/../../../../nios2-elf/lib\libc.a(lib_a-strchr.o)
 .debug_line    0x00007caf      0x4e1 c:/altera/13.0sp1/nios2eds/bin/gnu/h-i686-mingw32/bin/../lib/gcc/nios2-elf/4.1.2/../../../../nios2-elf/lib\libc.a(lib_a-strerror.o)
 .debug_line    0x00008190      0x26d c:/altera/13.0sp1/nios2eds/bin/gnu/h-i686-mingw32/bin/../lib/gcc/nios2-elf/4.1.2/../../../../nios2-elf/lib\libc.a(lib_a-strlen.o)
 .debug_line    0x000083fd       0x91 c:/altera/13.0sp1/nios2eds/bin/gnu/h-i686-mingw32/bin/../lib/gcc/nios2-elf/4.1.2/../../../../nios2-elf/lib\libc.a(lib_a-u_strerr.o)
 .debug_line    0x0000848e     0x110c c:/altera/13.0sp1/nios2eds/bin/gnu/h-i686-mingw32/bin/../lib/gcc/nios2-elf/4.1.2/../../../../nios2-elf/lib\libc.a(lib_a-vfprintf.o)
 .debug_line    0x0000959a      0x350 c:/altera/13.0sp1/nios2eds/bin/gnu/h-i686-mingw32/bin/../lib/gcc/nios2-elf/4.1.2/../../../../nios2-elf/lib\libc.a(lib_a-wbuf.o)
 .debug_line    0x000098ea      0x2f0 c:/altera/13.0sp1/nios2eds/bin/gnu/h-i686-mingw32/bin/../lib/gcc/nios2-elf/4.1.2/../../../../nios2-elf/lib\libc.a(lib_a-wsetup.o)
 .debug_line    0x00009bda      0x367 c:/altera/13.0sp1/nios2eds/bin/gnu/h-i686-mingw32/bin/../lib/gcc/nios2-elf/4.1.2/../../../../nios2-elf/lib\libc.a(lib_a-__call_atexit.o)
 .debug_line    0x00009f41     0x12c6 c:/altera/13.0sp1/nios2eds/bin/gnu/h-i686-mingw32/bin/../lib/gcc/nios2-elf/4.1.2/../../../../nios2-elf/lib\libc.a(lib_a-dtoa.o)
 .debug_line    0x0000b207      0x40d c:/altera/13.0sp1/nios2eds/bin/gnu/h-i686-mingw32/bin/../lib/gcc/nios2-elf/4.1.2/../../../../nios2-elf/lib\libc.a(lib_a-fflush.o)
 .debug_line    0x0000b614      0x601 c:/altera/13.0sp1/nios2eds/bin/gnu/h-i686-mingw32/bin/../lib/gcc/nios2-elf/4.1.2/../../../../nios2-elf/lib\libc.a(lib_a-findfp.o)
 .debug_line    0x0000bc15      0x285 c:/altera/13.0sp1/nios2eds/bin/gnu/h-i686-mingw32/bin/../lib/gcc/nios2-elf/4.1.2/../../../../nios2-elf/lib\libc.a(lib_a-fputc.o)
 .debug_line    0x0000be9a      0x2c8 c:/altera/13.0sp1/nios2eds/bin/gnu/h-i686-mingw32/bin/../lib/gcc/nios2-elf/4.1.2/../../../../nios2-elf/lib\libc.a(lib_a-fputs.o)
 .debug_line    0x0000c162      0x5eb c:/altera/13.0sp1/nios2eds/bin/gnu/h-i686-mingw32/bin/../lib/gcc/nios2-elf/4.1.2/../../../../nios2-elf/lib\libc.a(lib_a-freer.o)
 .debug_line    0x0000c74d      0x641 c:/altera/13.0sp1/nios2eds/bin/gnu/h-i686-mingw32/bin/../lib/gcc/nios2-elf/4.1.2/../../../../nios2-elf/lib\libc.a(lib_a-fvwrite.o)
 .debug_line    0x0000cd8e      0x34a c:/altera/13.0sp1/nios2eds/bin/gnu/h-i686-mingw32/bin/../lib/gcc/nios2-elf/4.1.2/../../../../nios2-elf/lib\libc.a(lib_a-fwalk.o)
 .debug_line    0x0000d0d8      0x2c8 c:/altera/13.0sp1/nios2eds/bin/gnu/h-i686-mingw32/bin/../lib/gcc/nios2-elf/4.1.2/../../../../nios2-elf/lib\libc.a(lib_a-locale.o)
 .debug_line    0x0000d3a0      0x3c3 c:/altera/13.0sp1/nios2eds/bin/gnu/h-i686-mingw32/bin/../lib/gcc/nios2-elf/4.1.2/../../../../nios2-elf/lib\libc.a(lib_a-makebuf.o)
 .debug_line    0x0000d763      0x80a c:/altera/13.0sp1/nios2eds/bin/gnu/h-i686-mingw32/bin/../lib/gcc/nios2-elf/4.1.2/../../../../nios2-elf/lib\libc.a(lib_a-mallocr.o)
 .debug_line    0x0000df6d      0x303 c:/altera/13.0sp1/nios2eds/bin/gnu/h-i686-mingw32/bin/../lib/gcc/nios2-elf/4.1.2/../../../../nios2-elf/lib\libc.a(lib_a-memchr.o)
 .debug_line    0x0000e270     0x1243 c:/altera/13.0sp1/nios2eds/bin/gnu/h-i686-mingw32/bin/../lib/gcc/nios2-elf/4.1.2/../../../../nios2-elf/lib\libc.a(lib_a-mprec.o)
 .debug_line    0x0000f4b3      0x58a c:/altera/13.0sp1/nios2eds/bin/gnu/h-i686-mingw32/bin/../lib/gcc/nios2-elf/4.1.2/../../../../nios2-elf/lib\libc.a(lib_a-reallocr.o)
 .debug_line    0x0000fa3d      0x3c4 c:/altera/13.0sp1/nios2eds/bin/gnu/h-i686-mingw32/bin/../lib/gcc/nios2-elf/4.1.2/../../../../nios2-elf/lib\libc.a(lib_a-refill.o)
 .debug_line    0x0000fe01      0x222 c:/altera/13.0sp1/nios2eds/bin/gnu/h-i686-mingw32/bin/../lib/gcc/nios2-elf/4.1.2/../../../../nios2-elf/lib\libc.a(lib_a-s_isinfd.o)
 .debug_line    0x00010023      0x21a c:/altera/13.0sp1/nios2eds/bin/gnu/h-i686-mingw32/bin/../lib/gcc/nios2-elf/4.1.2/../../../../nios2-elf/lib\libc.a(lib_a-s_isnand.o)
 .debug_line    0x0001023d      0x299 c:/altera/13.0sp1/nios2eds/bin/gnu/h-i686-mingw32/bin/../lib/gcc/nios2-elf/4.1.2/../../../../nios2-elf/lib\libc.a(lib_a-sbrkr.o)
 .debug_line    0x000104d6      0x38c c:/altera/13.0sp1/nios2eds/bin/gnu/h-i686-mingw32/bin/../lib/gcc/nios2-elf/4.1.2/../../../../nios2-elf/lib\libc.a(lib_a-stdio.o)
 .debug_line    0x00010862      0x2d5 c:/altera/13.0sp1/nios2eds/bin/gnu/h-i686-mingw32/bin/../lib/gcc/nios2-elf/4.1.2/../../../../nios2-elf/lib\libc.a(lib_a-strcmp.o)
 .debug_line    0x00010b37      0x29a c:/altera/13.0sp1/nios2eds/bin/gnu/h-i686-mingw32/bin/../lib/gcc/nios2-elf/4.1.2/../../../../nios2-elf/lib\libc.a(lib_a-writer.o)
 .debug_line    0x00010dd1      0x25c c:/altera/13.0sp1/nios2eds/bin/gnu/h-i686-mingw32/bin/../lib/gcc/nios2-elf/4.1.2/../../../../nios2-elf/lib\libc.a(lib_a-callocr.o)
 .debug_line    0x0001102d      0x29a c:/altera/13.0sp1/nios2eds/bin/gnu/h-i686-mingw32/bin/../lib/gcc/nios2-elf/4.1.2/../../../../nios2-elf/lib\libc.a(lib_a-closer.o)
 .debug_line    0x000112c7      0x2e8 c:/altera/13.0sp1/nios2eds/bin/gnu/h-i686-mingw32/bin/../lib/gcc/nios2-elf/4.1.2/../../../../nios2-elf/lib\libc.a(lib_a-fclose.o)
 .debug_line    0x000115af      0x264 c:/altera/13.0sp1/nios2eds/bin/gnu/h-i686-mingw32/bin/../lib/gcc/nios2-elf/4.1.2/../../../../nios2-elf/lib\libc.a(lib_a-fstatr.o)
 .debug_line    0x00011813      0x1df c:/altera/13.0sp1/nios2eds/bin/gnu/h-i686-mingw32/bin/../lib/gcc/nios2-elf/4.1.2/../../../../nios2-elf/lib\libc.a(lib_a-int_errno.o)
 .debug_line    0x000119f2      0x29b c:/altera/13.0sp1/nios2eds/bin/gnu/h-i686-mingw32/bin/../lib/gcc/nios2-elf/4.1.2/../../../../nios2-elf/lib\libc.a(lib_a-isattyr.o)
 .debug_line    0x00011c8d      0x29a c:/altera/13.0sp1/nios2eds/bin/gnu/h-i686-mingw32/bin/../lib/gcc/nios2-elf/4.1.2/../../../../nios2-elf/lib\libc.a(lib_a-lseekr.o)
 .debug_line    0x00011f27      0x299 c:/altera/13.0sp1/nios2eds/bin/gnu/h-i686-mingw32/bin/../lib/gcc/nios2-elf/4.1.2/../../../../nios2-elf/lib\libc.a(lib_a-readr.o)
 .debug_line    0x000121c0      0x2f2 c:/altera/13.0sp1/nios2eds/bin/gnu/h-i686-mingw32/bin/../lib/gcc/nios2-elf/4.1.2\libgcc.a(_udivdi3.o)
 .debug_line    0x000124b2      0x37d c:/altera/13.0sp1/nios2eds/bin/gnu/h-i686-mingw32/bin/../lib/gcc/nios2-elf/4.1.2\libgcc.a(_umoddi3.o)
 .debug_line    0x0001282f      0x301 c:/altera/13.0sp1/nios2eds/bin/gnu/h-i686-mingw32/bin/../lib/gcc/nios2-elf/4.1.2\libgcc.a(_div_df.o)
 .debug_line    0x00012b30      0x129 c:/altera/13.0sp1/nios2eds/bin/gnu/h-i686-mingw32/bin/../lib/gcc/nios2-elf/4.1.2\libgcc.a(_eq_df.o)
 .debug_line    0x00012c59      0x129 c:/altera/13.0sp1/nios2eds/bin/gnu/h-i686-mingw32/bin/../lib/gcc/nios2-elf/4.1.2\libgcc.a(_ne_df.o)
 .debug_line    0x00012d82      0x129 c:/altera/13.0sp1/nios2eds/bin/gnu/h-i686-mingw32/bin/../lib/gcc/nios2-elf/4.1.2\libgcc.a(_gt_df.o)
 .debug_line    0x00012eab      0x129 c:/altera/13.0sp1/nios2eds/bin/gnu/h-i686-mingw32/bin/../lib/gcc/nios2-elf/4.1.2\libgcc.a(_lt_df.o)
 .debug_line    0x00012fd4      0x175 c:/altera/13.0sp1/nios2eds/bin/gnu/h-i686-mingw32/bin/../lib/gcc/nios2-elf/4.1.2\libgcc.a(_si_to_df.o)
 .debug_line    0x00013149      0x24f c:/altera/13.0sp1/nios2eds/bin/gnu/h-i686-mingw32/bin/../lib/gcc/nios2-elf/4.1.2\libgcc.a(lib2-divmod.o)
 .debug_line    0x00013398      0x276 ../server1_bsp/\libucosii_bsp.a(alt_exit.o)
 .debug_line    0x0001360e      0x2c8 ../server1_bsp/\libucosii_bsp.a(alt_flash_dev.o)
 .debug_line    0x000138d6      0x301 ../server1_bsp/\libucosii_bsp.a(alt_fstat.o)
 .debug_line    0x00013bd7      0x36d ../server1_bsp/\libucosii_bsp.a(alt_irq_register.o)
 .debug_line    0x00013f44       0x72 ../server1_bsp/\libucosii_bsp.a(alt_irq_vars.o)
 .debug_line    0x00013fb6      0x302 ../server1_bsp/\libucosii_bsp.a(alt_isatty.o)
 .debug_line    0x000142b8      0x301 ../server1_bsp/\libucosii_bsp.a(alt_lseek.o)
 .debug_line    0x000145b9      0x349 ../server1_bsp/\libucosii_bsp.a(alt_main.o)
 .debug_line    0x00014902      0x261 ../server1_bsp/\libucosii_bsp.a(alt_sbrk.o)
 .debug_line    0x00014b63      0x2ad ../server1_bsp/\libucosii_bsp.a(alt_usleep.o)
 .debug_line    0x00014e10      0x2bf ../server1_bsp/\libucosii_bsp.a(alt_env_lock.o)
 .debug_line    0x000150cf      0x37b ../server1_bsp/\libucosii_bsp.a(alt_malloc_lock.o)
 .debug_line    0x0001544a     0x1663 ../server1_bsp/\libucosii_bsp.a(os_core.o)
 .debug_line    0x00016aad      0x388 ../server1_bsp/\libucosii_bsp.a(os_dbg.o)
 .debug_line    0x00016e35     0x11e7 ../server1_bsp/\libucosii_bsp.a(os_flag.o)
 .debug_line    0x0001801c      0x78a ../server1_bsp/\libucosii_bsp.a(os_mem.o)
 .debug_line    0x000187a6      0xe6b ../server1_bsp/\libucosii_bsp.a(os_q.o)
 .debug_line    0x00019611      0xa23 ../server1_bsp/\libucosii_bsp.a(os_sem.o)
 .debug_line    0x0001a034     0x112c ../server1_bsp/\libucosii_bsp.a(os_task.o)
 .debug_line    0x0001b160      0x52f ../server1_bsp/\libucosii_bsp.a(os_time.o)
 .debug_line    0x0001b68f      0x404 ../server1_bsp/\libucosii_bsp.a(alt_sys_init.o)
 .debug_line    0x0001ba93      0x573 ../server1_bsp/\libucosii_bsp.a(altera_avalon_cfi_flash.o)
 .debug_line    0x0001c006      0x979 ../server1_bsp/\libucosii_bsp.a(altera_avalon_cfi_flash_table.o)
 .debug_line    0x0001c97f      0x6ef ../server1_bsp/\libucosii_bsp.a(altera_avalon_epcs_flash_controller.o)
 .debug_line    0x0001d06e      0x319 ../server1_bsp/\libucosii_bsp.a(altera_avalon_jtag_uart_fd.o)
 .debug_line    0x0001d387      0x598 ../server1_bsp/\libucosii_bsp.a(altera_avalon_jtag_uart_init.o)
 .debug_line    0x0001d91f      0x356 ../server1_bsp/\libucosii_bsp.a(altera_avalon_jtag_uart_ioctl.o)
 .debug_line    0x0001dc75      0x494 ../server1_bsp/\libucosii_bsp.a(altera_avalon_jtag_uart_read.o)
 .debug_line    0x0001e109      0x4a2 ../server1_bsp/\libucosii_bsp.a(altera_avalon_jtag_uart_write.o)
 .debug_line    0x0001e5ab      0x940 ../server1_bsp/\libucosii_bsp.a(altera_avalon_lcd_16207.o)
 .debug_line    0x0001eeeb      0x2b9 ../server1_bsp/\libucosii_bsp.a(altera_avalon_lcd_16207_fd.o)
 .debug_line    0x0001f1a4      0x2b3 ../server1_bsp/\libucosii_bsp.a(altera_avalon_timer_sc.o)
 .debug_line    0x0001f457      0x2f7 ../server1_bsp/\libucosii_bsp.a(altera_avalon_uart_fd.o)
 .debug_line    0x0001f74e      0x567 ../server1_bsp/\libucosii_bsp.a(altera_avalon_uart_init.o)
 .debug_line    0x0001fcb5      0x4b3 ../server1_bsp/\libucosii_bsp.a(altera_avalon_uart_read.o)
 .debug_line    0x00020168      0x495 ../server1_bsp/\libucosii_bsp.a(altera_avalon_uart_write.o)
 .debug_line    0x000205fd      0x408 ../server1_bsp/\libucosii_bsp.a(epcs_commands.o)
 .debug_line    0x00020a05      0x347 ../server1_bsp/\libucosii_bsp.a(alt_iniche_close.o)
 .debug_line    0x00020d4c      0x3ea ../server1_bsp/\libucosii_bsp.a(alt_iniche_dev.o)
 .debug_line    0x00021136      0x346 ../server1_bsp/\libucosii_bsp.a(alt_iniche_read.o)
 .debug_line    0x0002147c      0x357 ../server1_bsp/\libucosii_bsp.a(alt_iniche_write.o)
 .debug_line    0x000217d3      0x7a6 ../server1_bsp/\libucosii_bsp.a(ipnet.o)
 .debug_line    0x00021f79      0x4e7 ../server1_bsp/\libucosii_bsp.a(ipstart.o)
 .debug_line    0x00022460      0x91c ../server1_bsp/\libucosii_bsp.a(igmp_cmn.o)
 .debug_line    0x00022d7c      0x6c7 ../server1_bsp/\libucosii_bsp.a(bsdsock.o)
 .debug_line    0x00023443      0x30a ../server1_bsp/\libucosii_bsp.a(cksum.o)
 .debug_line    0x0002374d      0x7a9 ../server1_bsp/\libucosii_bsp.a(in_utils.o)
 .debug_line    0x00023ef6      0x43f ../server1_bsp/\libucosii_bsp.a(netmain.o)
 .debug_line    0x00024335      0x64d ../server1_bsp/\libucosii_bsp.a(parseip.o)
 .debug_line    0x00024982      0x5a8 ../server1_bsp/\libucosii_bsp.a(tk_crnos.o)
 .debug_line    0x00024f2a     0x1069 ../server1_bsp/\libucosii_bsp.a(dhcpclnt.o)
 .debug_line    0x00025f93      0x2ff ../server1_bsp/\libucosii_bsp.a(dhcputil.o)
 .debug_line    0x00026292      0x649 ../server1_bsp/\libucosii_bsp.a(pktalloc.o)
 .debug_line    0x000268db      0x3db ../server1_bsp/\libucosii_bsp.a(q.o)
 .debug_line    0x00026cb6      0x46e ../server1_bsp/\libucosii_bsp.a(udp_open.o)
 .debug_line    0x00027124       0xaf ../server1_bsp/\libucosii_bsp.a(asm_cksum.o)
 .debug_line    0x000271d3      0x472 ../server1_bsp/\libucosii_bsp.a(brdutils.o)
 .debug_line    0x00027645      0x4ff ../server1_bsp/\libucosii_bsp.a(osportco.o)
 .debug_line    0x00027b44      0x63e ../server1_bsp/\libucosii_bsp.a(targnios.o)
 .debug_line    0x00028182      0xf23 ../server1_bsp/\libucosii_bsp.a(nptcp.o)
 .debug_line    0x000290a5      0x848 ../server1_bsp/\libucosii_bsp.a(rawsock.o)
 .debug_line    0x000298ed      0xe36 ../server1_bsp/\libucosii_bsp.a(sockcall.o)
 .debug_line    0x0002a723     0x12b8 ../server1_bsp/\libucosii_bsp.a(socket.o)
 .debug_line    0x0002b9db      0xbec ../server1_bsp/\libucosii_bsp.a(socket2.o)
 .debug_line    0x0002c5c7      0x72d ../server1_bsp/\libucosii_bsp.a(soselect.o)
 .debug_line    0x0002ccf4     0x15ee ../server1_bsp/\libucosii_bsp.a(tcp_in.o)
 .debug_line    0x0002e2e2      0xa59 ../server1_bsp/\libucosii_bsp.a(tcp_out.o)
 .debug_line    0x0002ed3b      0x7c3 ../server1_bsp/\libucosii_bsp.a(tcp_subr.o)
 .debug_line    0x0002f4fe      0x613 ../server1_bsp/\libucosii_bsp.a(tcp_timr.o)
 .debug_line    0x0002fb11      0x8a2 ../server1_bsp/\libucosii_bsp.a(tcp_usr.o)
 .debug_line    0x000303b3      0x33f ../server1_bsp/\libucosii_bsp.a(tcpport.o)
 .debug_line    0x000306f2      0x959 ../server1_bsp/\libucosii_bsp.a(udpsock.o)
 .debug_line    0x0003104b      0x2dc ../server1_bsp/\libucosii_bsp.a(alt_alarm_start.o)
 .debug_line    0x00031327      0x25c ../server1_bsp/\libucosii_bsp.a(alt_busy_sleep.o)
 .debug_line    0x00031583      0x2f9 ../server1_bsp/\libucosii_bsp.a(alt_close.o)
 .debug_line    0x0003187c      0x1e1 ../server1_bsp/\libucosii_bsp.a(alt_dcache_flush.o)
 .debug_line    0x00031a5d      0x2ba ../server1_bsp/\libucosii_bsp.a(alt_dev.o)
 .debug_line    0x00031d17      0x25a ../server1_bsp/\libucosii_bsp.a(alt_dev_llist_insert.o)
 .debug_line    0x00031f71       0x83 ../server1_bsp/\libucosii_bsp.a(alt_do_ctors.o)
 .debug_line    0x00031ff4       0x83 ../server1_bsp/\libucosii_bsp.a(alt_do_dtors.o)
 .debug_line    0x00032077      0x1aa ../server1_bsp/\libucosii_bsp.a(alt_errno.o)
 .debug_line    0x00032221      0x2da ../server1_bsp/\libucosii_bsp.a(alt_find_dev.o)
 .debug_line    0x000324fb      0x2c8 ../server1_bsp/\libucosii_bsp.a(alt_iic.o)
 .debug_line    0x000327c3      0x249 ../server1_bsp/\libucosii_bsp.a(alt_iic_isr_register.o)
 .debug_line    0x00032a0c      0x323 ../server1_bsp/\libucosii_bsp.a(alt_io_redirect.o)
 .debug_line    0x00032d2f       0x6b ../server1_bsp/\libucosii_bsp.a(alt_irq_entry.o)
 .debug_line    0x00032d9a      0x2c4 ../server1_bsp/\libucosii_bsp.a(alt_irq_handler.o)
 .debug_line    0x0003305e      0x35f ../server1_bsp/\libucosii_bsp.a(alt_open.o)
 .debug_line    0x000333bd      0x328 ../server1_bsp/\libucosii_bsp.a(alt_read.o)
 .debug_line    0x000336e5      0x279 ../server1_bsp/\libucosii_bsp.a(alt_release_fd.o)
 .debug_line    0x0003395e      0x1b9 ../server1_bsp/\libucosii_bsp.a(alt_remap_cached.o)
 .debug_line    0x00033b17      0x1c3 ../server1_bsp/\libucosii_bsp.a(alt_remap_uncached.o)
 .debug_line    0x00033cda      0x316 ../server1_bsp/\libucosii_bsp.a(alt_tick.o)
 .debug_line    0x00033ff0      0x329 ../server1_bsp/\libucosii_bsp.a(alt_write.o)
 .debug_line    0x00034319      0x1ce ../server1_bsp/\libucosii_bsp.a(altera_nios2_qsys_irq.o)
 .debug_line    0x000344e7       0x86 ../server1_bsp/\libucosii_bsp.a(os_cpu_a.o)
 .debug_line    0x0003456d      0x330 ../server1_bsp/\libucosii_bsp.a(os_cpu_c.o)
 .debug_line    0x0003489d      0x445 ../server1_bsp/\libucosii_bsp.a(altera_avalon_cfi_flash_amd.o)
 .debug_line    0x00034ce2      0x437 ../server1_bsp/\libucosii_bsp.a(altera_avalon_cfi_flash_intel.o)
 .debug_line    0x00035119      0x1f2 ../server1_bsp/\libucosii_bsp.a(altera_avalon_spi.o)
 .debug_line    0x0003530b      0x51f ../server1_bsp/\libucosii_bsp.a(allports.o)
 .debug_line    0x0003582a      0x483 ../server1_bsp/\libucosii_bsp.a(timeouts.o)
 .debug_line    0x00035cad      0x370 ../server1_bsp/\libucosii_bsp.a(tk_misc.o)
 .debug_line    0x0003601d      0x38f ../server1_bsp/\libucosii_bsp.a(alt_iniche_fcntl.o)
 .debug_line    0x000363ac      0xca2 ../server1_bsp/\libucosii_bsp.a(et_arp.o)
 .debug_line    0x0003704e      0x479 ../server1_bsp/\libucosii_bsp.a(iface.o)
 .debug_line    0x000374c7      0xf95 ../server1_bsp/\libucosii_bsp.a(ip.o)
 .debug_line    0x0003845c      0xf7c ../server1_bsp/\libucosii_bsp.a(ip_reasm.o)
 .debug_line    0x000393d8      0x786 ../server1_bsp/\libucosii_bsp.a(ipdemux.o)
 .debug_line    0x00039b5e      0x468 ../server1_bsp/\libucosii_bsp.a(ipmc.o)
 .debug_line    0x00039fc6      0x338 ../server1_bsp/\libucosii_bsp.a(ipport.o)
 .debug_line    0x0003a2fe      0x5b9 ../server1_bsp/\libucosii_bsp.a(ipraw.o)
 .debug_line    0x0003a8b7      0x5bb ../server1_bsp/\libucosii_bsp.a(iproute.o)
 .debug_line    0x0003ae72      0x7f6 ../server1_bsp/\libucosii_bsp.a(udp.o)
 .debug_line    0x0003b668      0x43a ../server1_bsp/\libucosii_bsp.a(igmp.o)
 .debug_line    0x0003baa2      0x62d ../server1_bsp/\libucosii_bsp.a(igmp2.o)
 .debug_line    0x0003c0cf      0x711 ../server1_bsp/\libucosii_bsp.a(ipopt.o)
 .debug_line    0x0003c7e0      0x5fb ../server1_bsp/\libucosii_bsp.a(u_mctest.o)
 .debug_line    0x0003cddb      0x43f ../server1_bsp/\libucosii_bsp.a(dhcsetup.o)
 .debug_line    0x0003d21a      0x449 ../server1_bsp/\libucosii_bsp.a(memdev.o)
 .debug_line    0x0003d663      0x3b9 ../server1_bsp/\libucosii_bsp.a(tcpcksum.o)
 .debug_line    0x0003da1c      0x76d ../server1_bsp/\libucosii_bsp.a(in_pcb.o)
 .debug_line    0x0003e189      0xff7 ../server1_bsp/\libucosii_bsp.a(vfsfiles.o)
 .debug_line    0x0003f180      0x2c4 ../server1_bsp/\libucosii_bsp.a(vfsport.o)
 .debug_line    0x0003f444       0xab ../server1_bsp/\libucosii_bsp.a(alt_exception_entry.o)
 .debug_line    0x0003f4ef      0x358 ../server1_bsp/\libucosii_bsp.a(alt_fcntl.o)
 .debug_line    0x0003f847      0x2eb ../server1_bsp/\libucosii_bsp.a(alt_find_file.o)
 .debug_line    0x0003fb32      0x31b ../server1_bsp/\libucosii_bsp.a(alt_get_fd.o)
 .debug_line    0x0003fe4d      0x958 ../server1_bsp/\libucosii_bsp.a(icmp.o)
 .debug_line    0x000407a5      0x200 c:/altera/13.0sp1/nios2eds/bin/gnu/h-i686-mingw32/bin/../lib/gcc/nios2-elf/4.1.2/../../../../nios2-elf/lib\libc.a(lib_a-atexit.o)
 .debug_line    0x000409a5      0x20a c:/altera/13.0sp1/nios2eds/bin/gnu/h-i686-mingw32/bin/../lib/gcc/nios2-elf/4.1.2/../../../../nios2-elf/lib\libc.a(lib_a-atoi.o)
 .debug_line    0x00040baf      0x20c c:/altera/13.0sp1/nios2eds/bin/gnu/h-i686-mingw32/bin/../lib/gcc/nios2-elf/4.1.2/../../../../nios2-elf/lib\libc.a(lib_a-calloc.o)
 .debug_line    0x00040dbb      0x24b c:/altera/13.0sp1/nios2eds/bin/gnu/h-i686-mingw32/bin/../lib/gcc/nios2-elf/4.1.2/../../../../nios2-elf/lib\libc.a(lib_a-malloc.o)
 .debug_line    0x00041006      0x29f c:/altera/13.0sp1/nios2eds/bin/gnu/h-i686-mingw32/bin/../lib/gcc/nios2-elf/4.1.2/../../../../nios2-elf/lib\libc.a(lib_a-memcmp.o)
 .debug_line    0x000412a5      0x287 c:/altera/13.0sp1/nios2eds/bin/gnu/h-i686-mingw32/bin/../lib/gcc/nios2-elf/4.1.2/../../../../nios2-elf/lib\libc.a(lib_a-strcpy.o)
 .debug_line    0x0004152c      0x2fe c:/altera/13.0sp1/nios2eds/bin/gnu/h-i686-mingw32/bin/../lib/gcc/nios2-elf/4.1.2/../../../../nios2-elf/lib\libc.a(lib_a-strncmp.o)
 .debug_line    0x0004182a      0x2d0 c:/altera/13.0sp1/nios2eds/bin/gnu/h-i686-mingw32/bin/../lib/gcc/nios2-elf/4.1.2/../../../../nios2-elf/lib\libc.a(lib_a-strncpy.o)
 .debug_line    0x00041afa      0x403 c:/altera/13.0sp1/nios2eds/bin/gnu/h-i686-mingw32/bin/../lib/gcc/nios2-elf/4.1.2/../../../../nios2-elf/lib\libc.a(lib_a-strtol.o)
 .debug_line    0x00041efd      0x26f c:/altera/13.0sp1/nios2eds/bin/gnu/h-i686-mingw32/bin/../lib/gcc/nios2-elf/4.1.2/../../../../nios2-elf/lib\libc.a(lib_a-vprintf.o)
 .debug_line    0x0004216c      0x2d9 c:/altera/13.0sp1/nios2eds/bin/gnu/h-i686-mingw32/bin/../lib/gcc/nios2-elf/4.1.2/../../../../nios2-elf/lib\libc.a(lib_a-vsprintf.o)
 .debug_line    0x00042445      0x313 c:/altera/13.0sp1/nios2eds/bin/gnu/h-i686-mingw32/bin/../lib/gcc/nios2-elf/4.1.2/../../../../nios2-elf/lib\libc.a(lib_a-__atexit.o)

.debug_frame    0x00000000     0x68bc
 *(.debug_frame)
 .debug_frame   0x00000000       0xbc obj/default/LCD.o
 .debug_frame   0x000000bc       0x48 obj/default/SSS_DE2_115.o
 .debug_frame   0x00000104       0x64 obj/default/alt_error_handler.o
 .debug_frame   0x00000168      0x19c obj/default/dm9000a.o
 .debug_frame   0x00000304      0x110 obj/default/iniche_init.o
 .debug_frame   0x00000414       0x64 obj/default/led.o
 .debug_frame   0x00000478       0xbc obj/default/network_utilities.o
 .debug_frame   0x00000534       0xfc obj/default/simple_socket_server.o
 .debug_frame   0x00000630       0x30 c:/altera/13.0sp1/nios2eds/bin/gnu/h-i686-mingw32/bin/../lib/gcc/nios2-elf/4.1.2\libgcc.a(_fixunsdfsi.o)
 .debug_frame   0x00000660       0x28 c:/altera/13.0sp1/nios2eds/bin/gnu/h-i686-mingw32/bin/../lib/gcc/nios2-elf/4.1.2\libgcc.a(_si_to_sf.o)
 .debug_frame   0x00000688       0x28 c:/altera/13.0sp1/nios2eds/bin/gnu/h-i686-mingw32/bin/../lib/gcc/nios2-elf/4.1.2\libgcc.a(_sf_to_si.o)
 .debug_frame   0x000006b0       0x2c c:/altera/13.0sp1/nios2eds/bin/gnu/h-i686-mingw32/bin/../lib/gcc/nios2-elf/4.1.2\libgcc.a(_usi_to_sf.o)
 .debug_frame   0x000006dc       0x70 c:/altera/13.0sp1/nios2eds/bin/gnu/h-i686-mingw32/bin/../lib/gcc/nios2-elf/4.1.2\libgcc.a(_addsub_df.o)
 .debug_frame   0x0000074c       0x3c c:/altera/13.0sp1/nios2eds/bin/gnu/h-i686-mingw32/bin/../lib/gcc/nios2-elf/4.1.2\libgcc.a(_mul_df.o)
 .debug_frame   0x00000788       0x2c c:/altera/13.0sp1/nios2eds/bin/gnu/h-i686-mingw32/bin/../lib/gcc/nios2-elf/4.1.2\libgcc.a(_ge_df.o)
 .debug_frame   0x000007b4       0x28 c:/altera/13.0sp1/nios2eds/bin/gnu/h-i686-mingw32/bin/../lib/gcc/nios2-elf/4.1.2\libgcc.a(_df_to_si.o)
 .debug_frame   0x000007dc       0x38 c:/altera/13.0sp1/nios2eds/bin/gnu/h-i686-mingw32/bin/../lib/gcc/nios2-elf/4.1.2\libgcc.a(_usi_to_df.o)
 .debug_frame   0x00000814       0x2c c:/altera/13.0sp1/nios2eds/bin/gnu/h-i686-mingw32/bin/../lib/gcc/nios2-elf/4.1.2\libgcc.a(_muldi3.o)
 .debug_frame   0x00000840       0x20 c:/altera/13.0sp1/nios2eds/bin/gnu/h-i686-mingw32/bin/../lib/gcc/nios2-elf/4.1.2\libgcc.a(_clzsi2.o)
 .debug_frame   0x00000860       0x20 c:/altera/13.0sp1/nios2eds/bin/gnu/h-i686-mingw32/bin/../lib/gcc/nios2-elf/4.1.2\libgcc.a(_pack_sf.o)
 .debug_frame   0x00000880       0x20 c:/altera/13.0sp1/nios2eds/bin/gnu/h-i686-mingw32/bin/../lib/gcc/nios2-elf/4.1.2\libgcc.a(_unpack_sf.o)
 .debug_frame   0x000008a0       0x2c c:/altera/13.0sp1/nios2eds/bin/gnu/h-i686-mingw32/bin/../lib/gcc/nios2-elf/4.1.2\libgcc.a(_pack_df.o)
 .debug_frame   0x000008cc       0x20 c:/altera/13.0sp1/nios2eds/bin/gnu/h-i686-mingw32/bin/../lib/gcc/nios2-elf/4.1.2\libgcc.a(_unpack_df.o)
 .debug_frame   0x000008ec       0x20 c:/altera/13.0sp1/nios2eds/bin/gnu/h-i686-mingw32/bin/../lib/gcc/nios2-elf/4.1.2\libgcc.a(_fpcmp_parts_df.o)
 .debug_frame   0x0000090c       0x28 c:/altera/13.0sp1/nios2eds/bin/gnu/h-i686-mingw32/bin/../lib/gcc/nios2-elf/4.1.2/../../../../nios2-elf/lib\libc.a(lib_a-exit.o)
 .debug_frame   0x00000934       0x40 c:/altera/13.0sp1/nios2eds/bin/gnu/h-i686-mingw32/bin/../lib/gcc/nios2-elf/4.1.2/../../../../nios2-elf/lib\libc.a(lib_a-fprintf.o)
 .debug_frame   0x00000974       0x48 c:/altera/13.0sp1/nios2eds/bin/gnu/h-i686-mingw32/bin/../lib/gcc/nios2-elf/4.1.2/../../../../nios2-elf/lib\libc.a(lib_a-fwrite.o)
 .debug_frame   0x000009bc       0x48 c:/altera/13.0sp1/nios2eds/bin/gnu/h-i686-mingw32/bin/../lib/gcc/nios2-elf/4.1.2/../../../../nios2-elf/lib\libc.a(lib_a-getc.o)
 .debug_frame   0x00000a04       0x20 c:/altera/13.0sp1/nios2eds/bin/gnu/h-i686-mingw32/bin/../lib/gcc/nios2-elf/4.1.2/../../../../nios2-elf/lib\libc.a(lib_a-memcpy.o)
 .debug_frame   0x00000a24       0x20 c:/altera/13.0sp1/nios2eds/bin/gnu/h-i686-mingw32/bin/../lib/gcc/nios2-elf/4.1.2/../../../../nios2-elf/lib\libc.a(lib_a-memmove.o)
 .debug_frame   0x00000a44       0x20 c:/altera/13.0sp1/nios2eds/bin/gnu/h-i686-mingw32/bin/../lib/gcc/nios2-elf/4.1.2/../../../../nios2-elf/lib\libc.a(lib_a-memset.o)
 .debug_frame   0x00000a64       0x38 c:/altera/13.0sp1/nios2eds/bin/gnu/h-i686-mingw32/bin/../lib/gcc/nios2-elf/4.1.2/../../../../nios2-elf/lib\libc.a(lib_a-perror.o)
 .debug_frame   0x00000a9c       0x40 c:/altera/13.0sp1/nios2eds/bin/gnu/h-i686-mingw32/bin/../lib/gcc/nios2-elf/4.1.2/../../../../nios2-elf/lib\libc.a(lib_a-printf.o)
 .debug_frame   0x00000adc       0x4c c:/altera/13.0sp1/nios2eds/bin/gnu/h-i686-mingw32/bin/../lib/gcc/nios2-elf/4.1.2/../../../../nios2-elf/lib\libc.a(lib_a-putc.o)
 .debug_frame   0x00000b28       0x30 c:/altera/13.0sp1/nios2eds/bin/gnu/h-i686-mingw32/bin/../lib/gcc/nios2-elf/4.1.2/../../../../nios2-elf/lib\libc.a(lib_a-putchar.o)
 .debug_frame   0x00000b58       0x3c c:/altera/13.0sp1/nios2eds/bin/gnu/h-i686-mingw32/bin/../lib/gcc/nios2-elf/4.1.2/../../../../nios2-elf/lib\libc.a(lib_a-puts.o)
 .debug_frame   0x00000b94       0x38 c:/altera/13.0sp1/nios2eds/bin/gnu/h-i686-mingw32/bin/../lib/gcc/nios2-elf/4.1.2/../../../../nios2-elf/lib\libc.a(lib_a-rget.o)
 .debug_frame   0x00000bcc       0x40 c:/altera/13.0sp1/nios2eds/bin/gnu/h-i686-mingw32/bin/../lib/gcc/nios2-elf/4.1.2/../../../../nios2-elf/lib\libc.a(lib_a-sprintf.o)
 .debug_frame   0x00000c0c       0x20 c:/altera/13.0sp1/nios2eds/bin/gnu/h-i686-mingw32/bin/../lib/gcc/nios2-elf/4.1.2/../../../../nios2-elf/lib\libc.a(lib_a-strchr.o)
 .debug_frame   0x00000c2c       0x28 c:/altera/13.0sp1/nios2eds/bin/gnu/h-i686-mingw32/bin/../lib/gcc/nios2-elf/4.1.2/../../../../nios2-elf/lib\libc.a(lib_a-strerror.o)
 .debug_frame   0x00000c54       0x20 c:/altera/13.0sp1/nios2eds/bin/gnu/h-i686-mingw32/bin/../lib/gcc/nios2-elf/4.1.2/../../../../nios2-elf/lib\libc.a(lib_a-strlen.o)
 .debug_frame   0x00000c74       0x20 c:/altera/13.0sp1/nios2eds/bin/gnu/h-i686-mingw32/bin/../lib/gcc/nios2-elf/4.1.2/../../../../nios2-elf/lib\libc.a(lib_a-u_strerr.o)
 .debug_frame   0x00000c94       0x64 c:/altera/13.0sp1/nios2eds/bin/gnu/h-i686-mingw32/bin/../lib/gcc/nios2-elf/4.1.2/../../../../nios2-elf/lib\libc.a(lib_a-vfprintf.o)
 .debug_frame   0x00000cf8       0x3c c:/altera/13.0sp1/nios2eds/bin/gnu/h-i686-mingw32/bin/../lib/gcc/nios2-elf/4.1.2/../../../../nios2-elf/lib\libc.a(lib_a-wbuf.o)
 .debug_frame   0x00000d34       0x2c c:/altera/13.0sp1/nios2eds/bin/gnu/h-i686-mingw32/bin/../lib/gcc/nios2-elf/4.1.2/../../../../nios2-elf/lib\libc.a(lib_a-wsetup.o)
 .debug_frame   0x00000d60       0x4c c:/altera/13.0sp1/nios2eds/bin/gnu/h-i686-mingw32/bin/../lib/gcc/nios2-elf/4.1.2/../../../../nios2-elf/lib\libc.a(lib_a-__call_atexit.o)
 .debug_frame   0x00000dac       0x64 c:/altera/13.0sp1/nios2eds/bin/gnu/h-i686-mingw32/bin/../lib/gcc/nios2-elf/4.1.2/../../../../nios2-elf/lib\libc.a(lib_a-dtoa.o)
 .debug_frame   0x00000e10       0x40 c:/altera/13.0sp1/nios2eds/bin/gnu/h-i686-mingw32/bin/../lib/gcc/nios2-elf/4.1.2/../../../../nios2-elf/lib\libc.a(lib_a-fflush.o)
 .debug_frame   0x00000e50      0x118 c:/altera/13.0sp1/nios2eds/bin/gnu/h-i686-mingw32/bin/../lib/gcc/nios2-elf/4.1.2/../../../../nios2-elf/lib\libc.a(lib_a-findfp.o)
 .debug_frame   0x00000f68       0x4c c:/altera/13.0sp1/nios2eds/bin/gnu/h-i686-mingw32/bin/../lib/gcc/nios2-elf/4.1.2/../../../../nios2-elf/lib\libc.a(lib_a-fputc.o)
 .debug_frame   0x00000fb4       0x3c c:/altera/13.0sp1/nios2eds/bin/gnu/h-i686-mingw32/bin/../lib/gcc/nios2-elf/4.1.2/../../../../nios2-elf/lib\libc.a(lib_a-fputs.o)
 .debug_frame   0x00000ff0       0x4c c:/altera/13.0sp1/nios2eds/bin/gnu/h-i686-mingw32/bin/../lib/gcc/nios2-elf/4.1.2/../../../../nios2-elf/lib\libc.a(lib_a-freer.o)
 .debug_frame   0x0000103c       0x38 c:/altera/13.0sp1/nios2eds/bin/gnu/h-i686-mingw32/bin/../lib/gcc/nios2-elf/4.1.2/../../../../nios2-elf/lib\libc.a(lib_a-fvwrite.o)
 .debug_frame   0x00001074       0x60 c:/altera/13.0sp1/nios2eds/bin/gnu/h-i686-mingw32/bin/../lib/gcc/nios2-elf/4.1.2/../../../../nios2-elf/lib\libc.a(lib_a-fwalk.o)
 .debug_frame   0x000010d4       0x70 c:/altera/13.0sp1/nios2eds/bin/gnu/h-i686-mingw32/bin/../lib/gcc/nios2-elf/4.1.2/../../../../nios2-elf/lib\libc.a(lib_a-locale.o)
 .debug_frame   0x00001144       0x2c c:/altera/13.0sp1/nios2eds/bin/gnu/h-i686-mingw32/bin/../lib/gcc/nios2-elf/4.1.2/../../../../nios2-elf/lib\libc.a(lib_a-makebuf.o)
 .debug_frame   0x00001170       0x38 c:/altera/13.0sp1/nios2eds/bin/gnu/h-i686-mingw32/bin/../lib/gcc/nios2-elf/4.1.2/../../../../nios2-elf/lib\libc.a(lib_a-mallocr.o)
 .debug_frame   0x000011a8       0x20 c:/altera/13.0sp1/nios2eds/bin/gnu/h-i686-mingw32/bin/../lib/gcc/nios2-elf/4.1.2/../../../../nios2-elf/lib\libc.a(lib_a-memchr.o)
 .debug_frame   0x000011c8      0x218 c:/altera/13.0sp1/nios2eds/bin/gnu/h-i686-mingw32/bin/../lib/gcc/nios2-elf/4.1.2/../../../../nios2-elf/lib\libc.a(lib_a-mprec.o)
 .debug_frame   0x000013e0       0x38 c:/altera/13.0sp1/nios2eds/bin/gnu/h-i686-mingw32/bin/../lib/gcc/nios2-elf/4.1.2/../../../../nios2-elf/lib\libc.a(lib_a-reallocr.o)
 .debug_frame   0x00001418       0x3c c:/altera/13.0sp1/nios2eds/bin/gnu/h-i686-mingw32/bin/../lib/gcc/nios2-elf/4.1.2/../../../../nios2-elf/lib\libc.a(lib_a-refill.o)
 .debug_frame   0x00001454       0x20 c:/altera/13.0sp1/nios2eds/bin/gnu/h-i686-mingw32/bin/../lib/gcc/nios2-elf/4.1.2/../../../../nios2-elf/lib\libc.a(lib_a-s_isinfd.o)
 .debug_frame   0x00001474       0x20 c:/altera/13.0sp1/nios2eds/bin/gnu/h-i686-mingw32/bin/../lib/gcc/nios2-elf/4.1.2/../../../../nios2-elf/lib\libc.a(lib_a-s_isnand.o)
 .debug_frame   0x00001494       0x2c c:/altera/13.0sp1/nios2eds/bin/gnu/h-i686-mingw32/bin/../lib/gcc/nios2-elf/4.1.2/../../../../nios2-elf/lib\libc.a(lib_a-sbrkr.o)
 .debug_frame   0x000014c0       0x78 c:/altera/13.0sp1/nios2eds/bin/gnu/h-i686-mingw32/bin/../lib/gcc/nios2-elf/4.1.2/../../../../nios2-elf/lib\libc.a(lib_a-stdio.o)
 .debug_frame   0x00001538       0x20 c:/altera/13.0sp1/nios2eds/bin/gnu/h-i686-mingw32/bin/../lib/gcc/nios2-elf/4.1.2/../../../../nios2-elf/lib\libc.a(lib_a-strcmp.o)
 .debug_frame   0x00001558       0x2c c:/altera/13.0sp1/nios2eds/bin/gnu/h-i686-mingw32/bin/../lib/gcc/nios2-elf/4.1.2/../../../../nios2-elf/lib\libc.a(lib_a-writer.o)
 .debug_frame   0x00001584       0x28 c:/altera/13.0sp1/nios2eds/bin/gnu/h-i686-mingw32/bin/../lib/gcc/nios2-elf/4.1.2/../../../../nios2-elf/lib\libc.a(lib_a-callocr.o)
 .debug_frame   0x000015ac       0x2c c:/altera/13.0sp1/nios2eds/bin/gnu/h-i686-mingw32/bin/../lib/gcc/nios2-elf/4.1.2/../../../../nios2-elf/lib\libc.a(lib_a-closer.o)
 .debug_frame   0x000015d8       0x3c c:/altera/13.0sp1/nios2eds/bin/gnu/h-i686-mingw32/bin/../lib/gcc/nios2-elf/4.1.2/../../../../nios2-elf/lib\libc.a(lib_a-fclose.o)
 .debug_frame   0x00001614       0x2c c:/altera/13.0sp1/nios2eds/bin/gnu/h-i686-mingw32/bin/../lib/gcc/nios2-elf/4.1.2/../../../../nios2-elf/lib\libc.a(lib_a-fstatr.o)
 .debug_frame   0x00001640       0x2c c:/altera/13.0sp1/nios2eds/bin/gnu/h-i686-mingw32/bin/../lib/gcc/nios2-elf/4.1.2/../../../../nios2-elf/lib\libc.a(lib_a-isattyr.o)
 .debug_frame   0x0000166c       0x2c c:/altera/13.0sp1/nios2eds/bin/gnu/h-i686-mingw32/bin/../lib/gcc/nios2-elf/4.1.2/../../../../nios2-elf/lib\libc.a(lib_a-lseekr.o)
 .debug_frame   0x00001698       0x2c c:/altera/13.0sp1/nios2eds/bin/gnu/h-i686-mingw32/bin/../lib/gcc/nios2-elf/4.1.2/../../../../nios2-elf/lib\libc.a(lib_a-readr.o)
 .debug_frame   0x000016c4       0x38 c:/altera/13.0sp1/nios2eds/bin/gnu/h-i686-mingw32/bin/../lib/gcc/nios2-elf/4.1.2\libgcc.a(_udivdi3.o)
 .debug_frame   0x000016fc       0x38 c:/altera/13.0sp1/nios2eds/bin/gnu/h-i686-mingw32/bin/../lib/gcc/nios2-elf/4.1.2\libgcc.a(_umoddi3.o)
 .debug_frame   0x00001734       0x30 c:/altera/13.0sp1/nios2eds/bin/gnu/h-i686-mingw32/bin/../lib/gcc/nios2-elf/4.1.2\libgcc.a(_div_df.o)
 .debug_frame   0x00001764       0x2c c:/altera/13.0sp1/nios2eds/bin/gnu/h-i686-mingw32/bin/../lib/gcc/nios2-elf/4.1.2\libgcc.a(_eq_df.o)
 .debug_frame   0x00001790       0x2c c:/altera/13.0sp1/nios2eds/bin/gnu/h-i686-mingw32/bin/../lib/gcc/nios2-elf/4.1.2\libgcc.a(_ne_df.o)
 .debug_frame   0x000017bc       0x2c c:/altera/13.0sp1/nios2eds/bin/gnu/h-i686-mingw32/bin/../lib/gcc/nios2-elf/4.1.2\libgcc.a(_gt_df.o)
 .debug_frame   0x000017e8       0x2c c:/altera/13.0sp1/nios2eds/bin/gnu/h-i686-mingw32/bin/../lib/gcc/nios2-elf/4.1.2\libgcc.a(_lt_df.o)
 .debug_frame   0x00001814       0x30 c:/altera/13.0sp1/nios2eds/bin/gnu/h-i686-mingw32/bin/../lib/gcc/nios2-elf/4.1.2\libgcc.a(_si_to_df.o)
 .debug_frame   0x00001844       0x70 c:/altera/13.0sp1/nios2eds/bin/gnu/h-i686-mingw32/bin/../lib/gcc/nios2-elf/4.1.2\libgcc.a(lib2-divmod.o)
 .debug_frame   0x000018b4       0x48 ../server1_bsp/\libucosii_bsp.a(alt_exit.o)
 .debug_frame   0x000018fc       0x48 ../server1_bsp/\libucosii_bsp.a(alt_flash_dev.o)
 .debug_frame   0x00001944       0x48 ../server1_bsp/\libucosii_bsp.a(alt_fstat.o)
 .debug_frame   0x0000198c       0x2c ../server1_bsp/\libucosii_bsp.a(alt_irq_register.o)
 .debug_frame   0x000019b8       0x48 ../server1_bsp/\libucosii_bsp.a(alt_isatty.o)
 .debug_frame   0x00001a00       0x48 ../server1_bsp/\libucosii_bsp.a(alt_lseek.o)
 .debug_frame   0x00001a48       0x2c ../server1_bsp/\libucosii_bsp.a(alt_main.o)
 .debug_frame   0x00001a74       0x2c ../server1_bsp/\libucosii_bsp.a(alt_sbrk.o)
 .debug_frame   0x00001aa0       0x30 ../server1_bsp/\libucosii_bsp.a(alt_usleep.o)
 .debug_frame   0x00001ad0       0x4c ../server1_bsp/\libucosii_bsp.a(alt_env_lock.o)
 .debug_frame   0x00001b1c       0x4c ../server1_bsp/\libucosii_bsp.a(alt_malloc_lock.o)
 .debug_frame   0x00001b68      0x3e4 ../server1_bsp/\libucosii_bsp.a(os_core.o)
 .debug_frame   0x00001f4c       0x2c ../server1_bsp/\libucosii_bsp.a(os_dbg.o)
 .debug_frame   0x00001f78      0x180 ../server1_bsp/\libucosii_bsp.a(os_flag.o)
 .debug_frame   0x000020f8       0xd4 ../server1_bsp/\libucosii_bsp.a(os_mem.o)
 .debug_frame   0x000021cc      0x144 ../server1_bsp/\libucosii_bsp.a(os_q.o)
 .debug_frame   0x00002310       0xf0 ../server1_bsp/\libucosii_bsp.a(os_sem.o)
 .debug_frame   0x00002400      0x160 ../server1_bsp/\libucosii_bsp.a(os_task.o)
 .debug_frame   0x00002560       0xa0 ../server1_bsp/\libucosii_bsp.a(os_time.o)
 .debug_frame   0x00002600       0x64 ../server1_bsp/\libucosii_bsp.a(alt_sys_init.o)
 .debug_frame   0x00002664       0xd4 ../server1_bsp/\libucosii_bsp.a(altera_avalon_cfi_flash.o)
 .debug_frame   0x00002738      0x210 ../server1_bsp/\libucosii_bsp.a(altera_avalon_cfi_flash_table.o)
 .debug_frame   0x00002948      0x128 ../server1_bsp/\libucosii_bsp.a(altera_avalon_epcs_flash_controller.o)
 .debug_frame   0x00002a70       0x80 ../server1_bsp/\libucosii_bsp.a(altera_avalon_jtag_uart_fd.o)
 .debug_frame   0x00002af0       0x80 ../server1_bsp/\libucosii_bsp.a(altera_avalon_jtag_uart_init.o)
 .debug_frame   0x00002b70       0x2c ../server1_bsp/\libucosii_bsp.a(altera_avalon_jtag_uart_ioctl.o)
 .debug_frame   0x00002b9c       0x2c ../server1_bsp/\libucosii_bsp.a(altera_avalon_jtag_uart_read.o)
 .debug_frame   0x00002bc8       0x2c ../server1_bsp/\libucosii_bsp.a(altera_avalon_jtag_uart_write.o)
 .debug_frame   0x00002bf4      0x114 ../server1_bsp/\libucosii_bsp.a(altera_avalon_lcd_16207.o)
 .debug_frame   0x00002d08       0x2c ../server1_bsp/\libucosii_bsp.a(altera_avalon_lcd_16207_fd.o)
 .debug_frame   0x00002d34       0x48 ../server1_bsp/\libucosii_bsp.a(altera_avalon_timer_sc.o)
 .debug_frame   0x00002d7c       0x64 ../server1_bsp/\libucosii_bsp.a(altera_avalon_uart_fd.o)
 .debug_frame   0x00002de0       0x9c ../server1_bsp/\libucosii_bsp.a(altera_avalon_uart_init.o)
 .debug_frame   0x00002e7c       0x48 ../server1_bsp/\libucosii_bsp.a(altera_avalon_uart_read.o)
 .debug_frame   0x00002ec4       0x48 ../server1_bsp/\libucosii_bsp.a(altera_avalon_uart_write.o)
 .debug_frame   0x00002f0c      0x160 ../server1_bsp/\libucosii_bsp.a(epcs_commands.o)
 .debug_frame   0x0000306c       0x2c ../server1_bsp/\libucosii_bsp.a(alt_iniche_close.o)
 .debug_frame   0x00003098       0x2c ../server1_bsp/\libucosii_bsp.a(alt_iniche_dev.o)
 .debug_frame   0x000030c4       0x2c ../server1_bsp/\libucosii_bsp.a(alt_iniche_read.o)
 .debug_frame   0x000030f0       0x2c ../server1_bsp/\libucosii_bsp.a(alt_iniche_write.o)
 .debug_frame   0x0000311c       0xb8 ../server1_bsp/\libucosii_bsp.a(ipnet.o)
 .debug_frame   0x000031d4       0x80 ../server1_bsp/\libucosii_bsp.a(ipstart.o)
 .debug_frame   0x00003254       0xf8 ../server1_bsp/\libucosii_bsp.a(igmp_cmn.o)
 .debug_frame   0x0000334c      0x12c ../server1_bsp/\libucosii_bsp.a(bsdsock.o)
 .debug_frame   0x00003478       0x48 ../server1_bsp/\libucosii_bsp.a(cksum.o)
 .debug_frame   0x000034c0      0x164 ../server1_bsp/\libucosii_bsp.a(in_utils.o)
 .debug_frame   0x00003624       0x64 ../server1_bsp/\libucosii_bsp.a(netmain.o)
 .debug_frame   0x00003688      0x10c ../server1_bsp/\libucosii_bsp.a(parseip.o)
 .debug_frame   0x00003794       0xd4 ../server1_bsp/\libucosii_bsp.a(tk_crnos.o)
 .debug_frame   0x00003868      0x250 ../server1_bsp/\libucosii_bsp.a(dhcpclnt.o)
 .debug_frame   0x00003ab8       0x2c ../server1_bsp/\libucosii_bsp.a(dhcputil.o)
 .debug_frame   0x00003ae4       0xb8 ../server1_bsp/\libucosii_bsp.a(pktalloc.o)
 .debug_frame   0x00003b9c       0x64 ../server1_bsp/\libucosii_bsp.a(q.o)
 .debug_frame   0x00003c00       0x48 ../server1_bsp/\libucosii_bsp.a(udp_open.o)
 .debug_frame   0x00003c48       0xf0 ../server1_bsp/\libucosii_bsp.a(brdutils.o)
 .debug_frame   0x00003d38       0x9c ../server1_bsp/\libucosii_bsp.a(osportco.o)
 .debug_frame   0x00003dd4      0x110 ../server1_bsp/\libucosii_bsp.a(targnios.o)
 .debug_frame   0x00003ee4      0x208 ../server1_bsp/\libucosii_bsp.a(nptcp.o)
 .debug_frame   0x000040ec       0x68 ../server1_bsp/\libucosii_bsp.a(rawsock.o)
 .debug_frame   0x00004154      0x224 ../server1_bsp/\libucosii_bsp.a(sockcall.o)
 .debug_frame   0x00004378      0x1d4 ../server1_bsp/\libucosii_bsp.a(socket.o)
 .debug_frame   0x0000454c      0x294 ../server1_bsp/\libucosii_bsp.a(socket2.o)
 .debug_frame   0x000047e0      0x110 ../server1_bsp/\libucosii_bsp.a(soselect.o)
 .debug_frame   0x000048f0       0xd8 ../server1_bsp/\libucosii_bsp.a(tcp_in.o)
 .debug_frame   0x000049c8       0x68 ../server1_bsp/\libucosii_bsp.a(tcp_out.o)
 .debug_frame   0x00004a30      0x10c ../server1_bsp/\libucosii_bsp.a(tcp_subr.o)
 .debug_frame   0x00004b3c       0x64 ../server1_bsp/\libucosii_bsp.a(tcp_timr.o)
 .debug_frame   0x00004ba0       0x80 ../server1_bsp/\libucosii_bsp.a(tcp_usr.o)
 .debug_frame   0x00004c20       0x2c ../server1_bsp/\libucosii_bsp.a(tcpport.o)
 .debug_frame   0x00004c4c       0xbc ../server1_bsp/\libucosii_bsp.a(udpsock.o)
 .debug_frame   0x00004d08       0x2c ../server1_bsp/\libucosii_bsp.a(alt_alarm_start.o)
 .debug_frame   0x00004d34       0x2c ../server1_bsp/\libucosii_bsp.a(alt_busy_sleep.o)
 .debug_frame   0x00004d60       0x48 ../server1_bsp/\libucosii_bsp.a(alt_close.o)
 .debug_frame   0x00004da8       0x2c ../server1_bsp/\libucosii_bsp.a(alt_dcache_flush.o)
 .debug_frame   0x00004dd4       0x2c ../server1_bsp/\libucosii_bsp.a(alt_dev.o)
 .debug_frame   0x00004e00       0x48 ../server1_bsp/\libucosii_bsp.a(alt_dev_llist_insert.o)
 .debug_frame   0x00004e48       0x2c ../server1_bsp/\libucosii_bsp.a(alt_do_ctors.o)
 .debug_frame   0x00004e74       0x2c ../server1_bsp/\libucosii_bsp.a(alt_do_dtors.o)
 .debug_frame   0x00004ea0       0x2c ../server1_bsp/\libucosii_bsp.a(alt_find_dev.o)
 .debug_frame   0x00004ecc       0x80 ../server1_bsp/\libucosii_bsp.a(alt_iic.o)
 .debug_frame   0x00004f4c       0x2c ../server1_bsp/\libucosii_bsp.a(alt_iic_isr_register.o)
 .debug_frame   0x00004f78       0x48 ../server1_bsp/\libucosii_bsp.a(alt_io_redirect.o)
 .debug_frame   0x00004fc0       0x2c ../server1_bsp/\libucosii_bsp.a(alt_irq_handler.o)
 .debug_frame   0x00004fec       0x64 ../server1_bsp/\libucosii_bsp.a(alt_open.o)
 .debug_frame   0x00005050       0x48 ../server1_bsp/\libucosii_bsp.a(alt_read.o)
 .debug_frame   0x00005098       0x2c ../server1_bsp/\libucosii_bsp.a(alt_release_fd.o)
 .debug_frame   0x000050c4       0x2c ../server1_bsp/\libucosii_bsp.a(alt_remap_cached.o)
 .debug_frame   0x000050f0       0x2c ../server1_bsp/\libucosii_bsp.a(alt_remap_uncached.o)
 .debug_frame   0x0000511c       0x48 ../server1_bsp/\libucosii_bsp.a(alt_tick.o)
 .debug_frame   0x00005164       0x48 ../server1_bsp/\libucosii_bsp.a(alt_write.o)
 .debug_frame   0x000051ac       0x2c ../server1_bsp/\libucosii_bsp.a(altera_nios2_qsys_irq.o)
 .debug_frame   0x000051d8      0x128 ../server1_bsp/\libucosii_bsp.a(os_cpu_c.o)
 .debug_frame   0x00005300       0x80 ../server1_bsp/\libucosii_bsp.a(altera_avalon_cfi_flash_amd.o)
 .debug_frame   0x00005380       0x80 ../server1_bsp/\libucosii_bsp.a(altera_avalon_cfi_flash_intel.o)
 .debug_frame   0x00005400       0x2c ../server1_bsp/\libucosii_bsp.a(altera_avalon_spi.o)
 .debug_frame   0x0000542c       0xe0 ../server1_bsp/\libucosii_bsp.a(allports.o)
 .debug_frame   0x0000550c       0x88 ../server1_bsp/\libucosii_bsp.a(timeouts.o)
 .debug_frame   0x00005594       0x48 ../server1_bsp/\libucosii_bsp.a(tk_misc.o)
 .debug_frame   0x000055dc       0x2c ../server1_bsp/\libucosii_bsp.a(alt_iniche_fcntl.o)
 .debug_frame   0x00005608      0x160 ../server1_bsp/\libucosii_bsp.a(et_arp.o)
 .debug_frame   0x00005768       0x80 ../server1_bsp/\libucosii_bsp.a(iface.o)
 .debug_frame   0x000057e8      0x160 ../server1_bsp/\libucosii_bsp.a(ip.o)
 .debug_frame   0x00005948      0x1d4 ../server1_bsp/\libucosii_bsp.a(ip_reasm.o)
 .debug_frame   0x00005b1c       0x68 ../server1_bsp/\libucosii_bsp.a(ipdemux.o)
 .debug_frame   0x00005b84       0x64 ../server1_bsp/\libucosii_bsp.a(ipmc.o)
 .debug_frame   0x00005be8       0x64 ../server1_bsp/\libucosii_bsp.a(ipport.o)
 .debug_frame   0x00005c4c       0xb8 ../server1_bsp/\libucosii_bsp.a(ipraw.o)
 .debug_frame   0x00005d04       0x64 ../server1_bsp/\libucosii_bsp.a(iproute.o)
 .debug_frame   0x00005d68       0xd4 ../server1_bsp/\libucosii_bsp.a(udp.o)
 .debug_frame   0x00005e3c       0x2c ../server1_bsp/\libucosii_bsp.a(igmp.o)
 .debug_frame   0x00005e68       0x9c ../server1_bsp/\libucosii_bsp.a(igmp2.o)
 .debug_frame   0x00005f04       0x84 ../server1_bsp/\libucosii_bsp.a(ipopt.o)
 .debug_frame   0x00005f88       0x4c ../server1_bsp/\libucosii_bsp.a(u_mctest.o)
 .debug_frame   0x00005fd4       0x48 ../server1_bsp/\libucosii_bsp.a(dhcsetup.o)
 .debug_frame   0x0000601c      0x10c ../server1_bsp/\libucosii_bsp.a(memdev.o)
 .debug_frame   0x00006128       0x2c ../server1_bsp/\libucosii_bsp.a(tcpcksum.o)
 .debug_frame   0x00006154       0xf0 ../server1_bsp/\libucosii_bsp.a(in_pcb.o)
 .debug_frame   0x00006244      0x320 ../server1_bsp/\libucosii_bsp.a(vfsfiles.o)
 .debug_frame   0x00006564       0x2c ../server1_bsp/\libucosii_bsp.a(vfsport.o)
 .debug_frame   0x00006590       0x48 ../server1_bsp/\libucosii_bsp.a(alt_fcntl.o)
 .debug_frame   0x000065d8       0x2c ../server1_bsp/\libucosii_bsp.a(alt_find_file.o)
 .debug_frame   0x00006604       0x2c ../server1_bsp/\libucosii_bsp.a(alt_get_fd.o)
 .debug_frame   0x00006630       0x84 ../server1_bsp/\libucosii_bsp.a(icmp.o)
 .debug_frame   0x000066b4       0x20 c:/altera/13.0sp1/nios2eds/bin/gnu/h-i686-mingw32/bin/../lib/gcc/nios2-elf/4.1.2/../../../../nios2-elf/lib\libc.a(lib_a-atexit.o)
 .debug_frame   0x000066d4       0x30 c:/altera/13.0sp1/nios2eds/bin/gnu/h-i686-mingw32/bin/../lib/gcc/nios2-elf/4.1.2/../../../../nios2-elf/lib\libc.a(lib_a-atoi.o)
 .debug_frame   0x00006704       0x20 c:/altera/13.0sp1/nios2eds/bin/gnu/h-i686-mingw32/bin/../lib/gcc/nios2-elf/4.1.2/../../../../nios2-elf/lib\libc.a(lib_a-calloc.o)
 .debug_frame   0x00006724       0x30 c:/altera/13.0sp1/nios2eds/bin/gnu/h-i686-mingw32/bin/../lib/gcc/nios2-elf/4.1.2/../../../../nios2-elf/lib\libc.a(lib_a-malloc.o)
 .debug_frame   0x00006754       0x20 c:/altera/13.0sp1/nios2eds/bin/gnu/h-i686-mingw32/bin/../lib/gcc/nios2-elf/4.1.2/../../../../nios2-elf/lib\libc.a(lib_a-memcmp.o)
 .debug_frame   0x00006774       0x20 c:/altera/13.0sp1/nios2eds/bin/gnu/h-i686-mingw32/bin/../lib/gcc/nios2-elf/4.1.2/../../../../nios2-elf/lib\libc.a(lib_a-strcpy.o)
 .debug_frame   0x00006794       0x20 c:/altera/13.0sp1/nios2eds/bin/gnu/h-i686-mingw32/bin/../lib/gcc/nios2-elf/4.1.2/../../../../nios2-elf/lib\libc.a(lib_a-strncmp.o)
 .debug_frame   0x000067b4       0x20 c:/altera/13.0sp1/nios2eds/bin/gnu/h-i686-mingw32/bin/../lib/gcc/nios2-elf/4.1.2/../../../../nios2-elf/lib\libc.a(lib_a-strncpy.o)
 .debug_frame   0x000067d4       0x4c c:/altera/13.0sp1/nios2eds/bin/gnu/h-i686-mingw32/bin/../lib/gcc/nios2-elf/4.1.2/../../../../nios2-elf/lib\libc.a(lib_a-strtol.o)
 .debug_frame   0x00006820       0x30 c:/altera/13.0sp1/nios2eds/bin/gnu/h-i686-mingw32/bin/../lib/gcc/nios2-elf/4.1.2/../../../../nios2-elf/lib\libc.a(lib_a-vprintf.o)
 .debug_frame   0x00006850       0x38 c:/altera/13.0sp1/nios2eds/bin/gnu/h-i686-mingw32/bin/../lib/gcc/nios2-elf/4.1.2/../../../../nios2-elf/lib\libc.a(lib_a-vsprintf.o)
 .debug_frame   0x00006888       0x34 c:/altera/13.0sp1/nios2eds/bin/gnu/h-i686-mingw32/bin/../lib/gcc/nios2-elf/4.1.2/../../../../nios2-elf/lib\libc.a(lib_a-__atexit.o)

.debug_str      0x00000000     0x367e
 *(.debug_str)
 .debug_str     0x00000000       0x12 obj/default/LCD.o
 .debug_str     0x00000012       0x3f obj/default/SSS_DE2_115.o
 .debug_str     0x00000051       0x4e obj/default/alt_error_handler.o
 .debug_str     0x0000009f       0x33 obj/default/dm9000a.o
 .debug_str     0x000000d2       0x1d obj/default/iniche_init.o
 .debug_str     0x000000ef       0x2b obj/default/led.o
 .debug_str     0x0000011a       0x52 obj/default/network_utilities.o
 .debug_str     0x0000016c       0x2c obj/default/simple_socket_server.o
 .debug_str     0x00000198      0x125 c:/altera/13.0sp1/nios2eds/bin/gnu/h-i686-mingw32/bin/../lib/gcc/nios2-elf/4.1.2\libgcc.a(_fixunsdfsi.o)
                                0x16b (size before relaxing)
 .debug_str     0x000002bd       0xb8 c:/altera/13.0sp1/nios2eds/bin/gnu/h-i686-mingw32/bin/../lib/gcc/nios2-elf/4.1.2\libgcc.a(_si_to_sf.o)
                                0x1de (size before relaxing)
 .debug_str     0x00000375       0x36 c:/altera/13.0sp1/nios2eds/bin/gnu/h-i686-mingw32/bin/../lib/gcc/nios2-elf/4.1.2\libgcc.a(_sf_to_si.o)
                                0x201 (size before relaxing)
 .debug_str     0x000003ab       0x14 c:/altera/13.0sp1/nios2eds/bin/gnu/h-i686-mingw32/bin/../lib/gcc/nios2-elf/4.1.2\libgcc.a(_usi_to_sf.o)
                                0x1da (size before relaxing)
 .debug_str     0x000003bf       0x90 c:/altera/13.0sp1/nios2eds/bin/gnu/h-i686-mingw32/bin/../lib/gcc/nios2-elf/4.1.2\libgcc.a(_addsub_df.o)
                                0x26f (size before relaxing)
 .debug_str     0x0000044f       0x45 c:/altera/13.0sp1/nios2eds/bin/gnu/h-i686-mingw32/bin/../lib/gcc/nios2-elf/4.1.2\libgcc.a(_mul_df.o)
                                0x241 (size before relaxing)
 .debug_str     0x00000494        0x8 c:/altera/13.0sp1/nios2eds/bin/gnu/h-i686-mingw32/bin/../lib/gcc/nios2-elf/4.1.2\libgcc.a(_ge_df.o)
                                0x1fe (size before relaxing)
 .debug_str     0x0000049c        0xa c:/altera/13.0sp1/nios2eds/bin/gnu/h-i686-mingw32/bin/../lib/gcc/nios2-elf/4.1.2\libgcc.a(_df_to_si.o)
                                0x207 (size before relaxing)
 .debug_str     0x00000000      0x1a3 c:/altera/13.0sp1/nios2eds/bin/gnu/h-i686-mingw32/bin/../lib/gcc/nios2-elf/4.1.2\libgcc.a(_thenan_df.o)
 .debug_str     0x000004a6        0xe c:/altera/13.0sp1/nios2eds/bin/gnu/h-i686-mingw32/bin/../lib/gcc/nios2-elf/4.1.2\libgcc.a(_usi_to_df.o)
                                0x1da (size before relaxing)
 .debug_str     0x000004b4       0x42 c:/altera/13.0sp1/nios2eds/bin/gnu/h-i686-mingw32/bin/../lib/gcc/nios2-elf/4.1.2\libgcc.a(_muldi3.o)
                                0x1ac (size before relaxing)
 .debug_str     0x000004f6       0x20 c:/altera/13.0sp1/nios2eds/bin/gnu/h-i686-mingw32/bin/../lib/gcc/nios2-elf/4.1.2\libgcc.a(_clzsi2.o)
                                0x17e (size before relaxing)
 .debug_str     0x00000516       0x10 c:/altera/13.0sp1/nios2eds/bin/gnu/h-i686-mingw32/bin/../lib/gcc/nios2-elf/4.1.2\libgcc.a(_pack_sf.o)
                                0x200 (size before relaxing)
 .debug_str     0x00000526        0xb c:/altera/13.0sp1/nios2eds/bin/gnu/h-i686-mingw32/bin/../lib/gcc/nios2-elf/4.1.2\libgcc.a(_unpack_sf.o)
                                0x1e2 (size before relaxing)
 .debug_str     0x00000531        0x9 c:/altera/13.0sp1/nios2eds/bin/gnu/h-i686-mingw32/bin/../lib/gcc/nios2-elf/4.1.2\libgcc.a(_pack_df.o)
                                0x206 (size before relaxing)
 .debug_str     0x0000053a        0xb c:/altera/13.0sp1/nios2eds/bin/gnu/h-i686-mingw32/bin/../lib/gcc/nios2-elf/4.1.2\libgcc.a(_unpack_df.o)
                                0x1e8 (size before relaxing)
 .debug_str     0x00000545       0x10 c:/altera/13.0sp1/nios2eds/bin/gnu/h-i686-mingw32/bin/../lib/gcc/nios2-elf/4.1.2\libgcc.a(_fpcmp_parts_df.o)
                                0x1c6 (size before relaxing)
 .debug_str     0x00000000      0x161 c:/altera/13.0sp1/nios2eds/bin/gnu/h-i686-mingw32/bin/../lib/gcc/nios2-elf/4.1.2\libgcc.a(_clz.o)
 .debug_str     0x00000555       0xe2 c:/altera/13.0sp1/nios2eds/bin/gnu/h-i686-mingw32/bin/../lib/gcc/nios2-elf/4.1.2/../../../../nios2-elf/lib\libc.a(lib_a-ctype_.o)
                                0x105 (size before relaxing)
 .debug_str     0x00000637      0x43e c:/altera/13.0sp1/nios2eds/bin/gnu/h-i686-mingw32/bin/../lib/gcc/nios2-elf/4.1.2/../../../../nios2-elf/lib\libc.a(lib_a-exit.o)
                                0x50c (size before relaxing)
 .debug_str     0x00000a75       0xe8 c:/altera/13.0sp1/nios2eds/bin/gnu/h-i686-mingw32/bin/../lib/gcc/nios2-elf/4.1.2/../../../../nios2-elf/lib\libc.a(lib_a-fprintf.o)
                                0x51f (size before relaxing)
 .debug_str     0x00000b5d       0x87 c:/altera/13.0sp1/nios2eds/bin/gnu/h-i686-mingw32/bin/../lib/gcc/nios2-elf/4.1.2/../../../../nios2-elf/lib\libc.a(lib_a-fwrite.o)
                                0x55f (size before relaxing)
 .debug_str     0x00000be4       0x45 c:/altera/13.0sp1/nios2eds/bin/gnu/h-i686-mingw32/bin/../lib/gcc/nios2-elf/4.1.2/../../../../nios2-elf/lib\libc.a(lib_a-getc.o)
                                0x512 (size before relaxing)
 .debug_str     0x00000c29       0xd1 c:/altera/13.0sp1/nios2eds/bin/gnu/h-i686-mingw32/bin/../lib/gcc/nios2-elf/4.1.2/../../../../nios2-elf/lib\libc.a(lib_a-impure.o)
                                0x51a (size before relaxing)
 .debug_str     0x00000cfa       0xf5 c:/altera/13.0sp1/nios2eds/bin/gnu/h-i686-mingw32/bin/../lib/gcc/nios2-elf/4.1.2/../../../../nios2-elf/lib\libc.a(lib_a-memcpy.o)
                                0x128 (size before relaxing)
 .debug_str     0x00000def       0x5d c:/altera/13.0sp1/nios2eds/bin/gnu/h-i686-mingw32/bin/../lib/gcc/nios2-elf/4.1.2/../../../../nios2-elf/lib\libc.a(lib_a-memmove.o)
                                0x19d (size before relaxing)
 .debug_str     0x00000e4c       0x56 c:/altera/13.0sp1/nios2eds/bin/gnu/h-i686-mingw32/bin/../lib/gcc/nios2-elf/4.1.2/../../../../nios2-elf/lib\libc.a(lib_a-memset.o)
                                0x17e (size before relaxing)
 .debug_str     0x00000ea2       0x4b c:/altera/13.0sp1/nios2eds/bin/gnu/h-i686-mingw32/bin/../lib/gcc/nios2-elf/4.1.2/../../../../nios2-elf/lib\libc.a(lib_a-perror.o)
                                0x512 (size before relaxing)
 .debug_str     0x00000eed       0x44 c:/altera/13.0sp1/nios2eds/bin/gnu/h-i686-mingw32/bin/../lib/gcc/nios2-elf/4.1.2/../../../../nios2-elf/lib\libc.a(lib_a-printf.o)
                                0x523 (size before relaxing)
 .debug_str     0x00000f31       0x40 c:/altera/13.0sp1/nios2eds/bin/gnu/h-i686-mingw32/bin/../lib/gcc/nios2-elf/4.1.2/../../../../nios2-elf/lib\libc.a(lib_a-putc.o)
                                0x512 (size before relaxing)
 .debug_str     0x00000f71       0x4e c:/altera/13.0sp1/nios2eds/bin/gnu/h-i686-mingw32/bin/../lib/gcc/nios2-elf/4.1.2/../../../../nios2-elf/lib\libc.a(lib_a-putchar.o)
                                0x50f (size before relaxing)
 .debug_str     0x00000fbf       0x40 c:/altera/13.0sp1/nios2eds/bin/gnu/h-i686-mingw32/bin/../lib/gcc/nios2-elf/4.1.2/../../../../nios2-elf/lib\libc.a(lib_a-puts.o)
                                0x549 (size before relaxing)
 .debug_str     0x00000fff       0x4a c:/altera/13.0sp1/nios2eds/bin/gnu/h-i686-mingw32/bin/../lib/gcc/nios2-elf/4.1.2/../../../../nios2-elf/lib\libc.a(lib_a-rget.o)
                                0x510 (size before relaxing)
 .debug_str     0x00001049       0x46 c:/altera/13.0sp1/nios2eds/bin/gnu/h-i686-mingw32/bin/../lib/gcc/nios2-elf/4.1.2/../../../../nios2-elf/lib\libc.a(lib_a-sprintf.o)
                                0x52b (size before relaxing)
 .debug_str     0x0000108f       0x47 c:/altera/13.0sp1/nios2eds/bin/gnu/h-i686-mingw32/bin/../lib/gcc/nios2-elf/4.1.2/../../../../nios2-elf/lib\libc.a(lib_a-strchr.o)
                                0x175 (size before relaxing)
 .debug_str     0x000010d6       0x44 c:/altera/13.0sp1/nios2eds/bin/gnu/h-i686-mingw32/bin/../lib/gcc/nios2-elf/4.1.2/../../../../nios2-elf/lib\libc.a(lib_a-strerror.o)
                                0x174 (size before relaxing)
 .debug_str     0x0000111a       0x42 c:/altera/13.0sp1/nios2eds/bin/gnu/h-i686-mingw32/bin/../lib/gcc/nios2-elf/4.1.2/../../../../nios2-elf/lib\libc.a(lib_a-strlen.o)
                                0x17d (size before relaxing)
 .debug_str     0x0000115c       0x4c c:/altera/13.0sp1/nios2eds/bin/gnu/h-i686-mingw32/bin/../lib/gcc/nios2-elf/4.1.2/../../../../nios2-elf/lib\libc.a(lib_a-u_strerr.o)
                                 0xf0 (size before relaxing)
 .debug_str     0x000011a8      0x178 c:/altera/13.0sp1/nios2eds/bin/gnu/h-i686-mingw32/bin/../lib/gcc/nios2-elf/4.1.2/../../../../nios2-elf/lib\libc.a(lib_a-vfprintf.o)
                                0x6f8 (size before relaxing)
 .debug_str     0x00001320       0x4a c:/altera/13.0sp1/nios2eds/bin/gnu/h-i686-mingw32/bin/../lib/gcc/nios2-elf/4.1.2/../../../../nios2-elf/lib\libc.a(lib_a-wbuf.o)
                                0x510 (size before relaxing)
 .debug_str     0x0000136a       0x46 c:/altera/13.0sp1/nios2eds/bin/gnu/h-i686-mingw32/bin/../lib/gcc/nios2-elf/4.1.2/../../../../nios2-elf/lib\libc.a(lib_a-wsetup.o)
                                0x50c (size before relaxing)
 .debug_str     0x000013b0       0x7b c:/altera/13.0sp1/nios2eds/bin/gnu/h-i686-mingw32/bin/../lib/gcc/nios2-elf/4.1.2/../../../../nios2-elf/lib\libc.a(lib_a-__call_atexit.o)
                                0x54e (size before relaxing)
 .debug_str     0x0000142b      0x102 c:/altera/13.0sp1/nios2eds/bin/gnu/h-i686-mingw32/bin/../lib/gcc/nios2-elf/4.1.2/../../../../nios2-elf/lib\libc.a(lib_a-dtoa.o)
                                0x601 (size before relaxing)
 .debug_str     0x0000152d       0x52 c:/altera/13.0sp1/nios2eds/bin/gnu/h-i686-mingw32/bin/../lib/gcc/nios2-elf/4.1.2/../../../../nios2-elf/lib\libc.a(lib_a-fflush.o)
                                0x532 (size before relaxing)
 .debug_str     0x0000157f      0x102 c:/altera/13.0sp1/nios2eds/bin/gnu/h-i686-mingw32/bin/../lib/gcc/nios2-elf/4.1.2/../../../../nios2-elf/lib\libc.a(lib_a-findfp.o)
                                0x5f4 (size before relaxing)
 .debug_str     0x00001681       0x48 c:/altera/13.0sp1/nios2eds/bin/gnu/h-i686-mingw32/bin/../lib/gcc/nios2-elf/4.1.2/../../../../nios2-elf/lib\libc.a(lib_a-fputc.o)
                                0x51a (size before relaxing)
 .debug_str     0x000016c9       0x48 c:/altera/13.0sp1/nios2eds/bin/gnu/h-i686-mingw32/bin/../lib/gcc/nios2-elf/4.1.2/../../../../nios2-elf/lib\libc.a(lib_a-fputs.o)
                                0x558 (size before relaxing)
 .debug_str     0x00001711      0x15b c:/altera/13.0sp1/nios2eds/bin/gnu/h-i686-mingw32/bin/../lib/gcc/nios2-elf/4.1.2/../../../../nios2-elf/lib\libc.a(lib_a-freer.o)
                                0x643 (size before relaxing)
 .debug_str     0x0000186c       0x66 c:/altera/13.0sp1/nios2eds/bin/gnu/h-i686-mingw32/bin/../lib/gcc/nios2-elf/4.1.2/../../../../nios2-elf/lib\libc.a(lib_a-fvwrite.o)
                                0x563 (size before relaxing)
 .debug_str     0x000018d2       0x5e c:/altera/13.0sp1/nios2eds/bin/gnu/h-i686-mingw32/bin/../lib/gcc/nios2-elf/4.1.2/../../../../nios2-elf/lib\libc.a(lib_a-fwalk.o)
                                0x535 (size before relaxing)
 .debug_str     0x00001930      0x225 c:/altera/13.0sp1/nios2eds/bin/gnu/h-i686-mingw32/bin/../lib/gcc/nios2-elf/4.1.2/../../../../nios2-elf/lib\libc.a(lib_a-locale.o)
                                0x6a9 (size before relaxing)
 .debug_str     0x00001b55      0x123 c:/altera/13.0sp1/nios2eds/bin/gnu/h-i686-mingw32/bin/../lib/gcc/nios2-elf/4.1.2/../../../../nios2-elf/lib\libc.a(lib_a-makebuf.o)
                                0x606 (size before relaxing)
 .debug_str     0x00001c78       0xe9 c:/altera/13.0sp1/nios2eds/bin/gnu/h-i686-mingw32/bin/../lib/gcc/nios2-elf/4.1.2/../../../../nios2-elf/lib\libc.a(lib_a-mallocr.o)
                                0x6f1 (size before relaxing)
 .debug_str     0x00001d61       0x47 c:/altera/13.0sp1/nios2eds/bin/gnu/h-i686-mingw32/bin/../lib/gcc/nios2-elf/4.1.2/../../../../nios2-elf/lib\libc.a(lib_a-memchr.o)
                                0x18b (size before relaxing)
 .debug_str     0x00001da8       0xf8 c:/altera/13.0sp1/nios2eds/bin/gnu/h-i686-mingw32/bin/../lib/gcc/nios2-elf/4.1.2/../../../../nios2-elf/lib\libc.a(lib_a-mprec.o)
                                0x60e (size before relaxing)
 .debug_str     0x00001ea0       0x59 c:/altera/13.0sp1/nios2eds/bin/gnu/h-i686-mingw32/bin/../lib/gcc/nios2-elf/4.1.2/../../../../nios2-elf/lib\libc.a(lib_a-reallocr.o)
                                0x5c3 (size before relaxing)
 .debug_str     0x00001ef9       0x4d c:/altera/13.0sp1/nios2eds/bin/gnu/h-i686-mingw32/bin/../lib/gcc/nios2-elf/4.1.2/../../../../nios2-elf/lib\libc.a(lib_a-refill.o)
                                0x51a (size before relaxing)
 .debug_str     0x00001f46       0xdc c:/altera/13.0sp1/nios2eds/bin/gnu/h-i686-mingw32/bin/../lib/gcc/nios2-elf/4.1.2/../../../../nios2-elf/lib\libc.a(lib_a-s_isinfd.o)
                                0x18a (size before relaxing)
 .debug_str     0x00002022       0x46 c:/altera/13.0sp1/nios2eds/bin/gnu/h-i686-mingw32/bin/../lib/gcc/nios2-elf/4.1.2/../../../../nios2-elf/lib\libc.a(lib_a-s_isnand.o)
                                0x18a (size before relaxing)
 .debug_str     0x00002068       0x50 c:/altera/13.0sp1/nios2eds/bin/gnu/h-i686-mingw32/bin/../lib/gcc/nios2-elf/4.1.2/../../../../nios2-elf/lib\libc.a(lib_a-sbrkr.o)
                                0x50b (size before relaxing)
 .debug_str     0x000020b8       0x62 c:/altera/13.0sp1/nios2eds/bin/gnu/h-i686-mingw32/bin/../lib/gcc/nios2-elf/4.1.2/../../../../nios2-elf/lib\libc.a(lib_a-stdio.o)
                                0x531 (size before relaxing)
 .debug_str     0x0000211a       0x42 c:/altera/13.0sp1/nios2eds/bin/gnu/h-i686-mingw32/bin/../lib/gcc/nios2-elf/4.1.2/../../../../nios2-elf/lib\libc.a(lib_a-strcmp.o)
                                0x163 (size before relaxing)
 .debug_str     0x0000215c       0x4c c:/altera/13.0sp1/nios2eds/bin/gnu/h-i686-mingw32/bin/../lib/gcc/nios2-elf/4.1.2/../../../../nios2-elf/lib\libc.a(lib_a-writer.o)
                                0x50e (size before relaxing)
 .debug_str     0x000021a8       0x19 c:/altera/13.0sp1/nios2eds/bin/gnu/h-i686-mingw32/bin/../lib/gcc/nios2-elf/4.1.2/../../../../nios2-elf/lib\libc.a(lib_a-callocr.o)
                                0x542 (size before relaxing)
 .debug_str     0x000021c1       0x43 c:/altera/13.0sp1/nios2eds/bin/gnu/h-i686-mingw32/bin/../lib/gcc/nios2-elf/4.1.2/../../../../nios2-elf/lib\libc.a(lib_a-closer.o)
                                0x4fe (size before relaxing)
 .debug_str     0x00002204       0x4b c:/altera/13.0sp1/nios2eds/bin/gnu/h-i686-mingw32/bin/../lib/gcc/nios2-elf/4.1.2/../../../../nios2-elf/lib\libc.a(lib_a-fclose.o)
                                0x516 (size before relaxing)
 .debug_str     0x0000224f       0x49 c:/altera/13.0sp1/nios2eds/bin/gnu/h-i686-mingw32/bin/../lib/gcc/nios2-elf/4.1.2/../../../../nios2-elf/lib\libc.a(lib_a-fstatr.o)
                                0x5f1 (size before relaxing)
 .debug_str     0x00002298       0x3d c:/altera/13.0sp1/nios2eds/bin/gnu/h-i686-mingw32/bin/../lib/gcc/nios2-elf/4.1.2/../../../../nios2-elf/lib\libc.a(lib_a-int_errno.o)
                                0x163 (size before relaxing)
 .debug_str     0x000022d5       0x45 c:/altera/13.0sp1/nios2eds/bin/gnu/h-i686-mingw32/bin/../lib/gcc/nios2-elf/4.1.2/../../../../nios2-elf/lib\libc.a(lib_a-isattyr.o)
                                0x500 (size before relaxing)
 .debug_str     0x0000231a       0x43 c:/altera/13.0sp1/nios2eds/bin/gnu/h-i686-mingw32/bin/../lib/gcc/nios2-elf/4.1.2/../../../../nios2-elf/lib\libc.a(lib_a-lseekr.o)
                                0x50c (size before relaxing)
 .debug_str     0x0000235d       0x41 c:/altera/13.0sp1/nios2eds/bin/gnu/h-i686-mingw32/bin/../lib/gcc/nios2-elf/4.1.2/../../../../nios2-elf/lib\libc.a(lib_a-readr.o)
                                0x50c (size before relaxing)
 .debug_str     0x0000239e       0x35 c:/altera/13.0sp1/nios2eds/bin/gnu/h-i686-mingw32/bin/../lib/gcc/nios2-elf/4.1.2\libgcc.a(_udivdi3.o)
                                0x1f7 (size before relaxing)
 .debug_str     0x000023d3        0xa c:/altera/13.0sp1/nios2eds/bin/gnu/h-i686-mingw32/bin/../lib/gcc/nios2-elf/4.1.2\libgcc.a(_umoddi3.o)
                                0x1f7 (size before relaxing)
 .debug_str     0x000023dd       0x35 c:/altera/13.0sp1/nios2eds/bin/gnu/h-i686-mingw32/bin/../lib/gcc/nios2-elf/4.1.2\libgcc.a(_div_df.o)
                                0x231 (size before relaxing)
 .debug_str     0x00002412        0x8 c:/altera/13.0sp1/nios2eds/bin/gnu/h-i686-mingw32/bin/../lib/gcc/nios2-elf/4.1.2\libgcc.a(_eq_df.o)
                                0x1fe (size before relaxing)
 .debug_str     0x0000241a        0x8 c:/altera/13.0sp1/nios2eds/bin/gnu/h-i686-mingw32/bin/../lib/gcc/nios2-elf/4.1.2\libgcc.a(_ne_df.o)
                                0x1fe (size before relaxing)
 .debug_str     0x00002422        0x8 c:/altera/13.0sp1/nios2eds/bin/gnu/h-i686-mingw32/bin/../lib/gcc/nios2-elf/4.1.2\libgcc.a(_gt_df.o)
                                0x1fe (size before relaxing)
 .debug_str     0x0000242a        0x8 c:/altera/13.0sp1/nios2eds/bin/gnu/h-i686-mingw32/bin/../lib/gcc/nios2-elf/4.1.2\libgcc.a(_lt_df.o)
                                0x1fe (size before relaxing)
 .debug_str     0x00002432        0xc c:/altera/13.0sp1/nios2eds/bin/gnu/h-i686-mingw32/bin/../lib/gcc/nios2-elf/4.1.2\libgcc.a(_si_to_df.o)
                                0x1de (size before relaxing)
 .debug_str     0x0000243e       0x76 c:/altera/13.0sp1/nios2eds/bin/gnu/h-i686-mingw32/bin/../lib/gcc/nios2-elf/4.1.2\libgcc.a(lib2-divmod.o)
                                0x1b4 (size before relaxing)
 .debug_str     0x000024b4       0x1c ../server1_bsp/\libucosii_bsp.a(alt_exit.o)
 .debug_str     0x000024d0       0x2d ../server1_bsp/\libucosii_bsp.a(alt_flash_dev.o)
 .debug_str     0x000024fd       0x12 ../server1_bsp/\libucosii_bsp.a(alt_fstat.o)
 .debug_str     0x0000250f       0x21 ../server1_bsp/\libucosii_bsp.a(alt_irq_register.o)
 .debug_str     0x00002530       0x12 ../server1_bsp/\libucosii_bsp.a(alt_isatty.o)
 .debug_str     0x00002542       0x12 ../server1_bsp/\libucosii_bsp.a(alt_lseek.o)
 .debug_str     0x00002554       0x12 ../server1_bsp/\libucosii_bsp.a(alt_main.o)
 .debug_str     0x00002566       0x1a ../server1_bsp/\libucosii_bsp.a(alt_sbrk.o)
 .debug_str     0x00002580       0x12 ../server1_bsp/\libucosii_bsp.a(alt_usleep.o)
 .debug_str     0x00002592       0x36 ../server1_bsp/\libucosii_bsp.a(alt_env_lock.o)
 .debug_str     0x000025c8       0x36 ../server1_bsp/\libucosii_bsp.a(alt_malloc_lock.o)
 .debug_str     0x000025fe       0x46 ../server1_bsp/\libucosii_bsp.a(os_core.o)
 .debug_str     0x00002644       0x2b ../server1_bsp/\libucosii_bsp.a(os_dbg.o)
 .debug_str     0x0000266f       0x4e ../server1_bsp/\libucosii_bsp.a(os_flag.o)
 .debug_str     0x000026bd       0x2c ../server1_bsp/\libucosii_bsp.a(os_mem.o)
 .debug_str     0x000026e9       0x36 ../server1_bsp/\libucosii_bsp.a(os_q.o)
 .debug_str     0x0000271f       0x36 ../server1_bsp/\libucosii_bsp.a(os_sem.o)
 .debug_str     0x00002755       0x23 ../server1_bsp/\libucosii_bsp.a(os_task.o)
 .debug_str     0x00002778       0x1f ../server1_bsp/\libucosii_bsp.a(os_time.o)
 .debug_str     0x00002797       0x67 ../server1_bsp/\libucosii_bsp.a(alt_sys_init.o)
 .debug_str     0x000027fe       0x82 ../server1_bsp/\libucosii_bsp.a(altera_avalon_cfi_flash.o)
 .debug_str     0x00002880       0x6d ../server1_bsp/\libucosii_bsp.a(altera_avalon_cfi_flash_table.o)
 .debug_str     0x000028ed       0x90 ../server1_bsp/\libucosii_bsp.a(altera_avalon_epcs_flash_controller.o)
 .debug_str     0x0000297d       0x12 ../server1_bsp/\libucosii_bsp.a(altera_avalon_jtag_uart_fd.o)
 .debug_str     0x0000298f       0x1a ../server1_bsp/\libucosii_bsp.a(altera_avalon_jtag_uart_init.o)
 .debug_str     0x000029a9       0x12 ../server1_bsp/\libucosii_bsp.a(altera_avalon_jtag_uart_ioctl.o)
 .debug_str     0x000029bb       0x22 ../server1_bsp/\libucosii_bsp.a(altera_avalon_jtag_uart_read.o)
 .debug_str     0x000029dd       0x22 ../server1_bsp/\libucosii_bsp.a(altera_avalon_jtag_uart_write.o)
 .debug_str     0x000029ff       0x25 ../server1_bsp/\libucosii_bsp.a(altera_avalon_lcd_16207.o)
 .debug_str     0x00002a24       0x12 ../server1_bsp/\libucosii_bsp.a(altera_avalon_lcd_16207_fd.o)
 .debug_str     0x00002a36       0x12 ../server1_bsp/\libucosii_bsp.a(altera_avalon_timer_sc.o)
 .debug_str     0x00002a48       0x12 ../server1_bsp/\libucosii_bsp.a(altera_avalon_uart_fd.o)
 .debug_str     0x00002a5a       0x1f ../server1_bsp/\libucosii_bsp.a(altera_avalon_uart_init.o)
 .debug_str     0x00002a79       0x1a ../server1_bsp/\libucosii_bsp.a(altera_avalon_uart_read.o)
 .debug_str     0x00002a93       0x1a ../server1_bsp/\libucosii_bsp.a(altera_avalon_uart_write.o)
 .debug_str     0x00002aad       0x2e ../server1_bsp/\libucosii_bsp.a(epcs_commands.o)
 .debug_str     0x00002adb       0x12 ../server1_bsp/\libucosii_bsp.a(alt_iniche_close.o)
 .debug_str     0x00002aed       0x12 ../server1_bsp/\libucosii_bsp.a(alt_iniche_dev.o)
 .debug_str     0x00002aff       0x12 ../server1_bsp/\libucosii_bsp.a(alt_iniche_read.o)
 .debug_str     0x00002b11       0x12 ../server1_bsp/\libucosii_bsp.a(alt_iniche_write.o)
 .debug_str     0x00002b23       0x12 ../server1_bsp/\libucosii_bsp.a(ipnet.o)
 .debug_str     0x00002b35       0x12 ../server1_bsp/\libucosii_bsp.a(ipstart.o)
 .debug_str     0x00002b47       0x12 ../server1_bsp/\libucosii_bsp.a(igmp_cmn.o)
 .debug_str     0x00002b59       0x20 ../server1_bsp/\libucosii_bsp.a(bsdsock.o)
 .debug_str     0x00002b79       0x12 ../server1_bsp/\libucosii_bsp.a(cksum.o)
 .debug_str     0x00002b8b       0x12 ../server1_bsp/\libucosii_bsp.a(in_utils.o)
 .debug_str     0x00002b9d       0x12 ../server1_bsp/\libucosii_bsp.a(netmain.o)
 .debug_str     0x00002baf       0x12 ../server1_bsp/\libucosii_bsp.a(parseip.o)
 .debug_str     0x00002bc1       0x12 ../server1_bsp/\libucosii_bsp.a(tk_crnos.o)
 .debug_str     0x00002bd3       0x2e ../server1_bsp/\libucosii_bsp.a(dhcpclnt.o)
 .debug_str     0x00002c01       0x12 ../server1_bsp/\libucosii_bsp.a(dhcputil.o)
 .debug_str     0x00002c13       0x12 ../server1_bsp/\libucosii_bsp.a(pktalloc.o)
 .debug_str     0x00002c25       0x12 ../server1_bsp/\libucosii_bsp.a(q.o)
 .debug_str     0x00002c37       0x12 ../server1_bsp/\libucosii_bsp.a(udp_open.o)
 .debug_str     0x00002c49       0x20 ../server1_bsp/\libucosii_bsp.a(brdutils.o)
 .debug_str     0x00002c69       0x22 ../server1_bsp/\libucosii_bsp.a(osportco.o)
 .debug_str     0x00002c8b       0x12 ../server1_bsp/\libucosii_bsp.a(targnios.o)
 .debug_str     0x00002c9d       0x1e ../server1_bsp/\libucosii_bsp.a(nptcp.o)
 .debug_str     0x00002cbb       0x12 ../server1_bsp/\libucosii_bsp.a(rawsock.o)
 .debug_str     0x00002ccd       0x34 ../server1_bsp/\libucosii_bsp.a(sockcall.o)
 .debug_str     0x00002d01       0x18 ../server1_bsp/\libucosii_bsp.a(socket.o)
 .debug_str     0x00002d19       0x12 ../server1_bsp/\libucosii_bsp.a(socket2.o)
 .debug_str     0x00002d2b       0x12 ../server1_bsp/\libucosii_bsp.a(soselect.o)
 .debug_str     0x00002d3d       0x12 ../server1_bsp/\libucosii_bsp.a(tcp_in.o)
 .debug_str     0x00002d4f       0x12 ../server1_bsp/\libucosii_bsp.a(tcp_out.o)
 .debug_str     0x00002d61       0x12 ../server1_bsp/\libucosii_bsp.a(tcp_subr.o)
 .debug_str     0x00002d73       0x12 ../server1_bsp/\libucosii_bsp.a(tcp_timr.o)
 .debug_str     0x00002d85       0x12 ../server1_bsp/\libucosii_bsp.a(tcp_usr.o)
 .debug_str     0x00002d97       0x12 ../server1_bsp/\libucosii_bsp.a(tcpport.o)
 .debug_str     0x00002da9       0x1a ../server1_bsp/\libucosii_bsp.a(udpsock.o)
 .debug_str     0x00002dc3       0x23 ../server1_bsp/\libucosii_bsp.a(alt_alarm_start.o)
 .debug_str     0x00002de6       0x12 ../server1_bsp/\libucosii_bsp.a(alt_busy_sleep.o)
 .debug_str     0x00002df8       0x12 ../server1_bsp/\libucosii_bsp.a(alt_close.o)
 .debug_str     0x00002e0a       0x12 ../server1_bsp/\libucosii_bsp.a(alt_dcache_flush.o)
 .debug_str     0x00002e1c       0x12 ../server1_bsp/\libucosii_bsp.a(alt_dev.o)
 .debug_str     0x00002e2e       0x12 ../server1_bsp/\libucosii_bsp.a(alt_dev_llist_insert.o)
 .debug_str     0x00002e40       0x12 ../server1_bsp/\libucosii_bsp.a(alt_errno.o)
 .debug_str     0x00002e52       0x12 ../server1_bsp/\libucosii_bsp.a(alt_find_dev.o)
 .debug_str     0x00002e64       0x18 ../server1_bsp/\libucosii_bsp.a(alt_iic.o)
 .debug_str     0x00002e7c       0x1a ../server1_bsp/\libucosii_bsp.a(alt_iic_isr_register.o)
 .debug_str     0x00002e96       0x12 ../server1_bsp/\libucosii_bsp.a(alt_io_redirect.o)
 .debug_str     0x00002ea8       0x12 ../server1_bsp/\libucosii_bsp.a(alt_irq_handler.o)
 .debug_str     0x00002eba       0x12 ../server1_bsp/\libucosii_bsp.a(alt_open.o)
 .debug_str     0x00002ecc       0x12 ../server1_bsp/\libucosii_bsp.a(alt_read.o)
 .debug_str     0x00002ede       0x12 ../server1_bsp/\libucosii_bsp.a(alt_release_fd.o)
 .debug_str     0x00002ef0       0x12 ../server1_bsp/\libucosii_bsp.a(alt_remap_cached.o)
 .debug_str     0x00002f02       0x12 ../server1_bsp/\libucosii_bsp.a(alt_remap_uncached.o)
 .debug_str     0x00002f14       0x1a ../server1_bsp/\libucosii_bsp.a(alt_tick.o)
 .debug_str     0x00002f2e       0x12 ../server1_bsp/\libucosii_bsp.a(alt_write.o)
 .debug_str     0x00002f40       0x12 ../server1_bsp/\libucosii_bsp.a(altera_nios2_qsys_irq.o)
 .debug_str     0x00002f52       0x20 ../server1_bsp/\libucosii_bsp.a(os_cpu_c.o)
 .debug_str     0x00002f72       0x76 ../server1_bsp/\libucosii_bsp.a(altera_avalon_cfi_flash_amd.o)
 .debug_str     0x00002fe8       0x7d ../server1_bsp/\libucosii_bsp.a(altera_avalon_cfi_flash_intel.o)
 .debug_str     0x00003065       0x12 ../server1_bsp/\libucosii_bsp.a(allports.o)
 .debug_str     0x00003077       0x1b ../server1_bsp/\libucosii_bsp.a(timeouts.o)
 .debug_str     0x00003092       0x12 ../server1_bsp/\libucosii_bsp.a(tk_misc.o)
 .debug_str     0x000030a4       0x12 ../server1_bsp/\libucosii_bsp.a(alt_iniche_fcntl.o)
 .debug_str     0x000030b6       0x3d ../server1_bsp/\libucosii_bsp.a(et_arp.o)
 .debug_str     0x000030f3       0x12 ../server1_bsp/\libucosii_bsp.a(iface.o)
 .debug_str     0x00003105       0x2c ../server1_bsp/\libucosii_bsp.a(ip.o)
 .debug_str     0x00003131       0x4e ../server1_bsp/\libucosii_bsp.a(ip_reasm.o)
 .debug_str     0x0000317f       0x12 ../server1_bsp/\libucosii_bsp.a(ipdemux.o)
 .debug_str     0x00003191       0x12 ../server1_bsp/\libucosii_bsp.a(ipmc.o)
 .debug_str     0x000031a3       0x12 ../server1_bsp/\libucosii_bsp.a(ipport.o)
 .debug_str     0x000031b5       0x12 ../server1_bsp/\libucosii_bsp.a(ipraw.o)
 .debug_str     0x000031c7       0x12 ../server1_bsp/\libucosii_bsp.a(iproute.o)
 .debug_str     0x000031d9       0x12 ../server1_bsp/\libucosii_bsp.a(udp.o)
 .debug_str     0x000031eb       0x12 ../server1_bsp/\libucosii_bsp.a(igmp.o)
 .debug_str     0x000031fd       0x20 ../server1_bsp/\libucosii_bsp.a(igmp2.o)
 .debug_str     0x0000321d       0x12 ../server1_bsp/\libucosii_bsp.a(ipopt.o)
 .debug_str     0x0000322f       0x12 ../server1_bsp/\libucosii_bsp.a(u_mctest.o)
 .debug_str     0x00003241       0x12 ../server1_bsp/\libucosii_bsp.a(dhcsetup.o)
 .debug_str     0x00003253       0x1b ../server1_bsp/\libucosii_bsp.a(memdev.o)
 .debug_str     0x0000326e       0x12 ../server1_bsp/\libucosii_bsp.a(tcpcksum.o)
 .debug_str     0x00003280       0x12 ../server1_bsp/\libucosii_bsp.a(in_pcb.o)
 .debug_str     0x00003292       0x2b ../server1_bsp/\libucosii_bsp.a(vfsfiles.o)
 .debug_str     0x000032bd       0x12 ../server1_bsp/\libucosii_bsp.a(vfsport.o)
 .debug_str     0x000032cf       0x12 ../server1_bsp/\libucosii_bsp.a(alt_fcntl.o)
 .debug_str     0x000032e1       0x12 ../server1_bsp/\libucosii_bsp.a(alt_find_file.o)
 .debug_str     0x000032f3       0x12 ../server1_bsp/\libucosii_bsp.a(alt_get_fd.o)
 .debug_str     0x00003305       0x12 ../server1_bsp/\libucosii_bsp.a(icmp.o)
 .debug_str     0x00003317       0x3b c:/altera/13.0sp1/nios2eds/bin/gnu/h-i686-mingw32/bin/../lib/gcc/nios2-elf/4.1.2/../../../../nios2-elf/lib\libc.a(lib_a-atexit.o)
                                0x1bf (size before relaxing)
 .debug_str     0x00003352       0x46 c:/altera/13.0sp1/nios2eds/bin/gnu/h-i686-mingw32/bin/../lib/gcc/nios2-elf/4.1.2/../../../../nios2-elf/lib\libc.a(lib_a-atoi.o)
                                0x4fc (size before relaxing)
 .debug_str     0x00003398       0x42 c:/altera/13.0sp1/nios2eds/bin/gnu/h-i686-mingw32/bin/../lib/gcc/nios2-elf/4.1.2/../../../../nios2-elf/lib\libc.a(lib_a-calloc.o)
                                0x510 (size before relaxing)
 .debug_str     0x000033da       0x47 c:/altera/13.0sp1/nios2eds/bin/gnu/h-i686-mingw32/bin/../lib/gcc/nios2-elf/4.1.2/../../../../nios2-elf/lib\libc.a(lib_a-malloc.o)
                                0x51c (size before relaxing)
 .debug_str     0x00003421       0x42 c:/altera/13.0sp1/nios2eds/bin/gnu/h-i686-mingw32/bin/../lib/gcc/nios2-elf/4.1.2/../../../../nios2-elf/lib\libc.a(lib_a-memcmp.o)
                                0x16a (size before relaxing)
 .debug_str     0x00003463       0x42 c:/altera/13.0sp1/nios2eds/bin/gnu/h-i686-mingw32/bin/../lib/gcc/nios2-elf/4.1.2/../../../../nios2-elf/lib\libc.a(lib_a-strcpy.o)
                                0x185 (size before relaxing)
 .debug_str     0x000034a5       0x44 c:/altera/13.0sp1/nios2eds/bin/gnu/h-i686-mingw32/bin/../lib/gcc/nios2-elf/4.1.2/../../../../nios2-elf/lib\libc.a(lib_a-strncmp.o)
                                0x16c (size before relaxing)
 .debug_str     0x000034e9       0x44 c:/altera/13.0sp1/nios2eds/bin/gnu/h-i686-mingw32/bin/../lib/gcc/nios2-elf/4.1.2/../../../../nios2-elf/lib\libc.a(lib_a-strncpy.o)
                                0x194 (size before relaxing)
 .debug_str     0x0000352d       0x61 c:/altera/13.0sp1/nios2eds/bin/gnu/h-i686-mingw32/bin/../lib/gcc/nios2-elf/4.1.2/../../../../nios2-elf/lib\libc.a(lib_a-strtol.o)
                                0x53e (size before relaxing)
 .debug_str     0x0000358e       0x4e c:/altera/13.0sp1/nios2eds/bin/gnu/h-i686-mingw32/bin/../lib/gcc/nios2-elf/4.1.2/../../../../nios2-elf/lib\libc.a(lib_a-vprintf.o)
                                0x526 (size before relaxing)
 .debug_str     0x000035dc       0x51 c:/altera/13.0sp1/nios2eds/bin/gnu/h-i686-mingw32/bin/../lib/gcc/nios2-elf/4.1.2/../../../../nios2-elf/lib\libc.a(lib_a-vsprintf.o)
                                0x52e (size before relaxing)
 .debug_str     0x0000362d       0x51 c:/altera/13.0sp1/nios2eds/bin/gnu/h-i686-mingw32/bin/../lib/gcc/nios2-elf/4.1.2/../../../../nios2-elf/lib\libc.a(lib_a-__atexit.o)
                                0x524 (size before relaxing)

.debug_loc      0x00000000    0x141cc
 *(.debug_loc)
 .debug_loc     0x00000000      0x103 obj/default/LCD.o
 .debug_loc     0x00000103       0x56 obj/default/SSS_DE2_115.o
 .debug_loc     0x00000159       0x81 obj/default/alt_error_handler.o
 .debug_loc     0x000001da      0x25a obj/default/dm9000a.o
 .debug_loc     0x00000434      0x185 obj/default/iniche_init.o
 .debug_loc     0x000005b9       0x81 obj/default/led.o
 .debug_loc     0x0000063a      0x103 obj/default/network_utilities.o
 .debug_loc     0x0000073d      0x15b obj/default/simple_socket_server.o
 .debug_loc     0x00000898       0x87 c:/altera/13.0sp1/nios2eds/bin/gnu/h-i686-mingw32/bin/../lib/gcc/nios2-elf/4.1.2\libgcc.a(_fixunsdfsi.o)
 .debug_loc     0x0000091f       0x8f c:/altera/13.0sp1/nios2eds/bin/gnu/h-i686-mingw32/bin/../lib/gcc/nios2-elf/4.1.2\libgcc.a(_si_to_sf.o)
 .debug_loc     0x000009ae       0x66 c:/altera/13.0sp1/nios2eds/bin/gnu/h-i686-mingw32/bin/../lib/gcc/nios2-elf/4.1.2\libgcc.a(_sf_to_si.o)
 .debug_loc     0x00000a14       0x87 c:/altera/13.0sp1/nios2eds/bin/gnu/h-i686-mingw32/bin/../lib/gcc/nios2-elf/4.1.2\libgcc.a(_usi_to_sf.o)
 .debug_loc     0x00000a9b      0x47a c:/altera/13.0sp1/nios2eds/bin/gnu/h-i686-mingw32/bin/../lib/gcc/nios2-elf/4.1.2\libgcc.a(_addsub_df.o)
 .debug_loc     0x00000f15      0x3b4 c:/altera/13.0sp1/nios2eds/bin/gnu/h-i686-mingw32/bin/../lib/gcc/nios2-elf/4.1.2\libgcc.a(_mul_df.o)
 .debug_loc     0x000012c9       0x70 c:/altera/13.0sp1/nios2eds/bin/gnu/h-i686-mingw32/bin/../lib/gcc/nios2-elf/4.1.2\libgcc.a(_ge_df.o)
 .debug_loc     0x00001339       0x8b c:/altera/13.0sp1/nios2eds/bin/gnu/h-i686-mingw32/bin/../lib/gcc/nios2-elf/4.1.2\libgcc.a(_df_to_si.o)
 .debug_loc     0x000013c4       0x5b c:/altera/13.0sp1/nios2eds/bin/gnu/h-i686-mingw32/bin/../lib/gcc/nios2-elf/4.1.2\libgcc.a(_usi_to_df.o)
 .debug_loc     0x0000141f       0xc4 c:/altera/13.0sp1/nios2eds/bin/gnu/h-i686-mingw32/bin/../lib/gcc/nios2-elf/4.1.2\libgcc.a(_muldi3.o)
 .debug_loc     0x000014e3       0x1e c:/altera/13.0sp1/nios2eds/bin/gnu/h-i686-mingw32/bin/../lib/gcc/nios2-elf/4.1.2\libgcc.a(_clzsi2.o)
 .debug_loc     0x00001501       0xf9 c:/altera/13.0sp1/nios2eds/bin/gnu/h-i686-mingw32/bin/../lib/gcc/nios2-elf/4.1.2\libgcc.a(_pack_sf.o)
 .debug_loc     0x000015fa       0x31 c:/altera/13.0sp1/nios2eds/bin/gnu/h-i686-mingw32/bin/../lib/gcc/nios2-elf/4.1.2\libgcc.a(_unpack_sf.o)
 .debug_loc     0x0000162b      0x184 c:/altera/13.0sp1/nios2eds/bin/gnu/h-i686-mingw32/bin/../lib/gcc/nios2-elf/4.1.2\libgcc.a(_pack_df.o)
 .debug_loc     0x000017af       0xe5 c:/altera/13.0sp1/nios2eds/bin/gnu/h-i686-mingw32/bin/../lib/gcc/nios2-elf/4.1.2\libgcc.a(_unpack_df.o)
 .debug_loc     0x00001894       0x3d c:/altera/13.0sp1/nios2eds/bin/gnu/h-i686-mingw32/bin/../lib/gcc/nios2-elf/4.1.2/../../../../nios2-elf/lib\libc.a(lib_a-exit.o)
 .debug_loc     0x000018d1       0xf1 c:/altera/13.0sp1/nios2eds/bin/gnu/h-i686-mingw32/bin/../lib/gcc/nios2-elf/4.1.2/../../../../nios2-elf/lib\libc.a(lib_a-fprintf.o)
 .debug_loc     0x000019c2      0x18e c:/altera/13.0sp1/nios2eds/bin/gnu/h-i686-mingw32/bin/../lib/gcc/nios2-elf/4.1.2/../../../../nios2-elf/lib\libc.a(lib_a-fwrite.o)
 .debug_loc     0x00001b50      0x10b c:/altera/13.0sp1/nios2eds/bin/gnu/h-i686-mingw32/bin/../lib/gcc/nios2-elf/4.1.2/../../../../nios2-elf/lib\libc.a(lib_a-getc.o)
 .debug_loc     0x00001c5b       0xca c:/altera/13.0sp1/nios2eds/bin/gnu/h-i686-mingw32/bin/../lib/gcc/nios2-elf/4.1.2/../../../../nios2-elf/lib\libc.a(lib_a-memcpy.o)
 .debug_loc     0x00001d25      0x117 c:/altera/13.0sp1/nios2eds/bin/gnu/h-i686-mingw32/bin/../lib/gcc/nios2-elf/4.1.2/../../../../nios2-elf/lib\libc.a(lib_a-memmove.o)
 .debug_loc     0x00001e3c       0xa1 c:/altera/13.0sp1/nios2eds/bin/gnu/h-i686-mingw32/bin/../lib/gcc/nios2-elf/4.1.2/../../../../nios2-elf/lib\libc.a(lib_a-memset.o)
 .debug_loc     0x00001edd       0xa2 c:/altera/13.0sp1/nios2eds/bin/gnu/h-i686-mingw32/bin/../lib/gcc/nios2-elf/4.1.2/../../../../nios2-elf/lib\libc.a(lib_a-perror.o)
 .debug_loc     0x00001f7f       0xcb c:/altera/13.0sp1/nios2eds/bin/gnu/h-i686-mingw32/bin/../lib/gcc/nios2-elf/4.1.2/../../../../nios2-elf/lib\libc.a(lib_a-printf.o)
 .debug_loc     0x0000204a      0x20d c:/altera/13.0sp1/nios2eds/bin/gnu/h-i686-mingw32/bin/../lib/gcc/nios2-elf/4.1.2/../../../../nios2-elf/lib\libc.a(lib_a-putc.o)
 .debug_loc     0x00002257       0x44 c:/altera/13.0sp1/nios2eds/bin/gnu/h-i686-mingw32/bin/../lib/gcc/nios2-elf/4.1.2/../../../../nios2-elf/lib\libc.a(lib_a-putchar.o)
 .debug_loc     0x0000229b       0xa2 c:/altera/13.0sp1/nios2eds/bin/gnu/h-i686-mingw32/bin/../lib/gcc/nios2-elf/4.1.2/../../../../nios2-elf/lib\libc.a(lib_a-puts.o)
 .debug_loc     0x0000233d       0x6e c:/altera/13.0sp1/nios2eds/bin/gnu/h-i686-mingw32/bin/../lib/gcc/nios2-elf/4.1.2/../../../../nios2-elf/lib\libc.a(lib_a-rget.o)
 .debug_loc     0x000023ab       0xc0 c:/altera/13.0sp1/nios2eds/bin/gnu/h-i686-mingw32/bin/../lib/gcc/nios2-elf/4.1.2/../../../../nios2-elf/lib\libc.a(lib_a-sprintf.o)
 .debug_loc     0x0000246b       0xf3 c:/altera/13.0sp1/nios2eds/bin/gnu/h-i686-mingw32/bin/../lib/gcc/nios2-elf/4.1.2/../../../../nios2-elf/lib\libc.a(lib_a-strchr.o)
 .debug_loc     0x0000255e      0x418 c:/altera/13.0sp1/nios2eds/bin/gnu/h-i686-mingw32/bin/../lib/gcc/nios2-elf/4.1.2/../../../../nios2-elf/lib\libc.a(lib_a-strerror.o)
 .debug_loc     0x00002976       0x3c c:/altera/13.0sp1/nios2eds/bin/gnu/h-i686-mingw32/bin/../lib/gcc/nios2-elf/4.1.2/../../../../nios2-elf/lib\libc.a(lib_a-strlen.o)
 .debug_loc     0x000029b2     0x1e0d c:/altera/13.0sp1/nios2eds/bin/gnu/h-i686-mingw32/bin/../lib/gcc/nios2-elf/4.1.2/../../../../nios2-elf/lib\libc.a(lib_a-vfprintf.o)
 .debug_loc     0x000047bf      0x157 c:/altera/13.0sp1/nios2eds/bin/gnu/h-i686-mingw32/bin/../lib/gcc/nios2-elf/4.1.2/../../../../nios2-elf/lib\libc.a(lib_a-wbuf.o)
 .debug_loc     0x00004916       0x7c c:/altera/13.0sp1/nios2eds/bin/gnu/h-i686-mingw32/bin/../lib/gcc/nios2-elf/4.1.2/../../../../nios2-elf/lib\libc.a(lib_a-wsetup.o)
 .debug_loc     0x00004992      0x1cb c:/altera/13.0sp1/nios2eds/bin/gnu/h-i686-mingw32/bin/../lib/gcc/nios2-elf/4.1.2/../../../../nios2-elf/lib\libc.a(lib_a-__call_atexit.o)
 .debug_loc     0x00004b5d     0x1dfa c:/altera/13.0sp1/nios2eds/bin/gnu/h-i686-mingw32/bin/../lib/gcc/nios2-elf/4.1.2/../../../../nios2-elf/lib\libc.a(lib_a-dtoa.o)
 .debug_loc     0x00006957      0x1f6 c:/altera/13.0sp1/nios2eds/bin/gnu/h-i686-mingw32/bin/../lib/gcc/nios2-elf/4.1.2/../../../../nios2-elf/lib\libc.a(lib_a-fflush.o)
 .debug_loc     0x00006b4d      0x19f c:/altera/13.0sp1/nios2eds/bin/gnu/h-i686-mingw32/bin/../lib/gcc/nios2-elf/4.1.2/../../../../nios2-elf/lib\libc.a(lib_a-findfp.o)
 .debug_loc     0x00006cec      0x14d c:/altera/13.0sp1/nios2eds/bin/gnu/h-i686-mingw32/bin/../lib/gcc/nios2-elf/4.1.2/../../../../nios2-elf/lib\libc.a(lib_a-fputc.o)
 .debug_loc     0x00006e39       0xcb c:/altera/13.0sp1/nios2eds/bin/gnu/h-i686-mingw32/bin/../lib/gcc/nios2-elf/4.1.2/../../../../nios2-elf/lib\libc.a(lib_a-fputs.o)
 .debug_loc     0x00006f04      0x4a7 c:/altera/13.0sp1/nios2eds/bin/gnu/h-i686-mingw32/bin/../lib/gcc/nios2-elf/4.1.2/../../../../nios2-elf/lib\libc.a(lib_a-freer.o)
 .debug_loc     0x000073ab      0x4e4 c:/altera/13.0sp1/nios2eds/bin/gnu/h-i686-mingw32/bin/../lib/gcc/nios2-elf/4.1.2/../../../../nios2-elf/lib\libc.a(lib_a-fvwrite.o)
 .debug_loc     0x0000788f      0x1d2 c:/altera/13.0sp1/nios2eds/bin/gnu/h-i686-mingw32/bin/../lib/gcc/nios2-elf/4.1.2/../../../../nios2-elf/lib\libc.a(lib_a-fwalk.o)
 .debug_loc     0x00007a61       0xe1 c:/altera/13.0sp1/nios2eds/bin/gnu/h-i686-mingw32/bin/../lib/gcc/nios2-elf/4.1.2/../../../../nios2-elf/lib\libc.a(lib_a-locale.o)
 .debug_loc     0x00007b42      0x11c c:/altera/13.0sp1/nios2eds/bin/gnu/h-i686-mingw32/bin/../lib/gcc/nios2-elf/4.1.2/../../../../nios2-elf/lib\libc.a(lib_a-makebuf.o)
 .debug_loc     0x00007c5e      0xaeb c:/altera/13.0sp1/nios2eds/bin/gnu/h-i686-mingw32/bin/../lib/gcc/nios2-elf/4.1.2/../../../../nios2-elf/lib\libc.a(lib_a-mallocr.o)
 .debug_loc     0x00008749      0x106 c:/altera/13.0sp1/nios2eds/bin/gnu/h-i686-mingw32/bin/../lib/gcc/nios2-elf/4.1.2/../../../../nios2-elf/lib\libc.a(lib_a-memchr.o)
 .debug_loc     0x0000884f     0x14d6 c:/altera/13.0sp1/nios2eds/bin/gnu/h-i686-mingw32/bin/../lib/gcc/nios2-elf/4.1.2/../../../../nios2-elf/lib\libc.a(lib_a-mprec.o)
 .debug_loc     0x00009d25      0x8c0 c:/altera/13.0sp1/nios2eds/bin/gnu/h-i686-mingw32/bin/../lib/gcc/nios2-elf/4.1.2/../../../../nios2-elf/lib\libc.a(lib_a-reallocr.o)
 .debug_loc     0x0000a5e5       0xd1 c:/altera/13.0sp1/nios2eds/bin/gnu/h-i686-mingw32/bin/../lib/gcc/nios2-elf/4.1.2/../../../../nios2-elf/lib\libc.a(lib_a-refill.o)
 .debug_loc     0x0000a6b6       0x36 c:/altera/13.0sp1/nios2eds/bin/gnu/h-i686-mingw32/bin/../lib/gcc/nios2-elf/4.1.2/../../../../nios2-elf/lib\libc.a(lib_a-s_isinfd.o)
 .debug_loc     0x0000a6ec       0x18 c:/altera/13.0sp1/nios2eds/bin/gnu/h-i686-mingw32/bin/../lib/gcc/nios2-elf/4.1.2/../../../../nios2-elf/lib\libc.a(lib_a-s_isnand.o)
 .debug_loc     0x0000a704       0x5b c:/altera/13.0sp1/nios2eds/bin/gnu/h-i686-mingw32/bin/../lib/gcc/nios2-elf/4.1.2/../../../../nios2-elf/lib\libc.a(lib_a-sbrkr.o)
 .debug_loc     0x0000a75f      0x21f c:/altera/13.0sp1/nios2eds/bin/gnu/h-i686-mingw32/bin/../lib/gcc/nios2-elf/4.1.2/../../../../nios2-elf/lib\libc.a(lib_a-stdio.o)
 .debug_loc     0x0000a97e       0x65 c:/altera/13.0sp1/nios2eds/bin/gnu/h-i686-mingw32/bin/../lib/gcc/nios2-elf/4.1.2/../../../../nios2-elf/lib\libc.a(lib_a-strcmp.o)
 .debug_loc     0x0000a9e3       0x97 c:/altera/13.0sp1/nios2eds/bin/gnu/h-i686-mingw32/bin/../lib/gcc/nios2-elf/4.1.2/../../../../nios2-elf/lib\libc.a(lib_a-writer.o)
 .debug_loc     0x0000aa7a       0xe9 c:/altera/13.0sp1/nios2eds/bin/gnu/h-i686-mingw32/bin/../lib/gcc/nios2-elf/4.1.2/../../../../nios2-elf/lib\libc.a(lib_a-callocr.o)
 .debug_loc     0x0000ab63       0x5b c:/altera/13.0sp1/nios2eds/bin/gnu/h-i686-mingw32/bin/../lib/gcc/nios2-elf/4.1.2/../../../../nios2-elf/lib\libc.a(lib_a-closer.o)
 .debug_loc     0x0000abbe       0xe4 c:/altera/13.0sp1/nios2eds/bin/gnu/h-i686-mingw32/bin/../lib/gcc/nios2-elf/4.1.2/../../../../nios2-elf/lib\libc.a(lib_a-fclose.o)
 .debug_loc     0x0000aca2       0x79 c:/altera/13.0sp1/nios2eds/bin/gnu/h-i686-mingw32/bin/../lib/gcc/nios2-elf/4.1.2/../../../../nios2-elf/lib\libc.a(lib_a-fstatr.o)
 .debug_loc     0x0000ad1b       0x5b c:/altera/13.0sp1/nios2eds/bin/gnu/h-i686-mingw32/bin/../lib/gcc/nios2-elf/4.1.2/../../../../nios2-elf/lib\libc.a(lib_a-isattyr.o)
 .debug_loc     0x0000ad76       0x97 c:/altera/13.0sp1/nios2eds/bin/gnu/h-i686-mingw32/bin/../lib/gcc/nios2-elf/4.1.2/../../../../nios2-elf/lib\libc.a(lib_a-lseekr.o)
 .debug_loc     0x0000ae0d       0x97 c:/altera/13.0sp1/nios2eds/bin/gnu/h-i686-mingw32/bin/../lib/gcc/nios2-elf/4.1.2/../../../../nios2-elf/lib\libc.a(lib_a-readr.o)
 .debug_loc     0x0000aea4      0xc12 c:/altera/13.0sp1/nios2eds/bin/gnu/h-i686-mingw32/bin/../lib/gcc/nios2-elf/4.1.2\libgcc.a(_udivdi3.o)
 .debug_loc     0x0000bab6      0xc26 c:/altera/13.0sp1/nios2eds/bin/gnu/h-i686-mingw32/bin/../lib/gcc/nios2-elf/4.1.2\libgcc.a(_umoddi3.o)
 .debug_loc     0x0000c6dc      0x1df c:/altera/13.0sp1/nios2eds/bin/gnu/h-i686-mingw32/bin/../lib/gcc/nios2-elf/4.1.2\libgcc.a(_div_df.o)
 .debug_loc     0x0000c8bb       0x70 c:/altera/13.0sp1/nios2eds/bin/gnu/h-i686-mingw32/bin/../lib/gcc/nios2-elf/4.1.2\libgcc.a(_eq_df.o)
 .debug_loc     0x0000c92b       0x70 c:/altera/13.0sp1/nios2eds/bin/gnu/h-i686-mingw32/bin/../lib/gcc/nios2-elf/4.1.2\libgcc.a(_ne_df.o)
 .debug_loc     0x0000c99b       0x70 c:/altera/13.0sp1/nios2eds/bin/gnu/h-i686-mingw32/bin/../lib/gcc/nios2-elf/4.1.2\libgcc.a(_gt_df.o)
 .debug_loc     0x0000ca0b       0x70 c:/altera/13.0sp1/nios2eds/bin/gnu/h-i686-mingw32/bin/../lib/gcc/nios2-elf/4.1.2\libgcc.a(_lt_df.o)
 .debug_loc     0x0000ca7b       0x9a c:/altera/13.0sp1/nios2eds/bin/gnu/h-i686-mingw32/bin/../lib/gcc/nios2-elf/4.1.2\libgcc.a(_si_to_df.o)
 .debug_loc     0x0000cb15      0x1d2 c:/altera/13.0sp1/nios2eds/bin/gnu/h-i686-mingw32/bin/../lib/gcc/nios2-elf/4.1.2\libgcc.a(lib2-divmod.o)
 .debug_loc     0x0000cce7       0x56 ../server1_bsp/\libucosii_bsp.a(alt_exit.o)
 .debug_loc     0x0000cd3d       0x56 ../server1_bsp/\libucosii_bsp.a(alt_flash_dev.o)
 .debug_loc     0x0000cd93       0x56 ../server1_bsp/\libucosii_bsp.a(alt_fstat.o)
 .debug_loc     0x0000cde9       0x2c ../server1_bsp/\libucosii_bsp.a(alt_irq_register.o)
 .debug_loc     0x0000ce15       0x57 ../server1_bsp/\libucosii_bsp.a(alt_isatty.o)
 .debug_loc     0x0000ce6c       0x56 ../server1_bsp/\libucosii_bsp.a(alt_lseek.o)
 .debug_loc     0x0000cec2       0x2b ../server1_bsp/\libucosii_bsp.a(alt_main.o)
 .debug_loc     0x0000ceed       0x2b ../server1_bsp/\libucosii_bsp.a(alt_sbrk.o)
 .debug_loc     0x0000cf18       0x2b ../server1_bsp/\libucosii_bsp.a(alt_usleep.o)
 .debug_loc     0x0000cf43       0x57 ../server1_bsp/\libucosii_bsp.a(alt_env_lock.o)
 .debug_loc     0x0000cf9a       0x57 ../server1_bsp/\libucosii_bsp.a(alt_malloc_lock.o)
 .debug_loc     0x0000cff1      0x5e2 ../server1_bsp/\libucosii_bsp.a(os_core.o)
 .debug_loc     0x0000d5d3       0x2b ../server1_bsp/\libucosii_bsp.a(os_dbg.o)
 .debug_loc     0x0000d5fe      0x232 ../server1_bsp/\libucosii_bsp.a(os_flag.o)
 .debug_loc     0x0000d830      0x12d ../server1_bsp/\libucosii_bsp.a(os_mem.o)
 .debug_loc     0x0000d95d      0x1da ../server1_bsp/\libucosii_bsp.a(os_q.o)
 .debug_loc     0x0000db37      0x158 ../server1_bsp/\libucosii_bsp.a(os_sem.o)
 .debug_loc     0x0000dc8f      0x207 ../server1_bsp/\libucosii_bsp.a(os_task.o)
 .debug_loc     0x0000de96       0xd7 ../server1_bsp/\libucosii_bsp.a(os_time.o)
 .debug_loc     0x0000df6d       0x81 ../server1_bsp/\libucosii_bsp.a(alt_sys_init.o)
 .debug_loc     0x0000dfee      0x12e ../server1_bsp/\libucosii_bsp.a(altera_avalon_cfi_flash.o)
 .debug_loc     0x0000e11c      0x306 ../server1_bsp/\libucosii_bsp.a(altera_avalon_cfi_flash_table.o)
 .debug_loc     0x0000e422      0x1af ../server1_bsp/\libucosii_bsp.a(altera_avalon_epcs_flash_controller.o)
 .debug_loc     0x0000e5d1       0xac ../server1_bsp/\libucosii_bsp.a(altera_avalon_jtag_uart_fd.o)
 .debug_loc     0x0000e67d       0xac ../server1_bsp/\libucosii_bsp.a(altera_avalon_jtag_uart_init.o)
 .debug_loc     0x0000e729       0x2b ../server1_bsp/\libucosii_bsp.a(altera_avalon_jtag_uart_ioctl.o)
 .debug_loc     0x0000e754       0x2c ../server1_bsp/\libucosii_bsp.a(altera_avalon_jtag_uart_read.o)
 .debug_loc     0x0000e780       0x2c ../server1_bsp/\libucosii_bsp.a(altera_avalon_jtag_uart_write.o)
 .debug_loc     0x0000e7ac      0x184 ../server1_bsp/\libucosii_bsp.a(altera_avalon_lcd_16207.o)
 .debug_loc     0x0000e930       0x2b ../server1_bsp/\libucosii_bsp.a(altera_avalon_lcd_16207_fd.o)
 .debug_loc     0x0000e95b       0x56 ../server1_bsp/\libucosii_bsp.a(altera_avalon_timer_sc.o)
 .debug_loc     0x0000e9b1       0x81 ../server1_bsp/\libucosii_bsp.a(altera_avalon_uart_fd.o)
 .debug_loc     0x0000ea32       0xd8 ../server1_bsp/\libucosii_bsp.a(altera_avalon_uart_init.o)
 .debug_loc     0x0000eb0a       0x57 ../server1_bsp/\libucosii_bsp.a(altera_avalon_uart_read.o)
 .debug_loc     0x0000eb61       0x57 ../server1_bsp/\libucosii_bsp.a(altera_avalon_uart_write.o)
 .debug_loc     0x0000ebb8      0x204 ../server1_bsp/\libucosii_bsp.a(epcs_commands.o)
 .debug_loc     0x0000edbc       0x2b ../server1_bsp/\libucosii_bsp.a(alt_iniche_close.o)
 .debug_loc     0x0000ede7       0x2b ../server1_bsp/\libucosii_bsp.a(alt_iniche_dev.o)
 .debug_loc     0x0000ee12       0x2b ../server1_bsp/\libucosii_bsp.a(alt_iniche_read.o)
 .debug_loc     0x0000ee3d       0x2b ../server1_bsp/\libucosii_bsp.a(alt_iniche_write.o)
 .debug_loc     0x0000ee68      0x102 ../server1_bsp/\libucosii_bsp.a(ipnet.o)
 .debug_loc     0x0000ef6a       0xac ../server1_bsp/\libucosii_bsp.a(ipstart.o)
 .debug_loc     0x0000f016      0x159 ../server1_bsp/\libucosii_bsp.a(igmp_cmn.o)
 .debug_loc     0x0000f16f      0x1af ../server1_bsp/\libucosii_bsp.a(bsdsock.o)
 .debug_loc     0x0000f31e       0x56 ../server1_bsp/\libucosii_bsp.a(cksum.o)
 .debug_loc     0x0000f374      0x204 ../server1_bsp/\libucosii_bsp.a(in_utils.o)
 .debug_loc     0x0000f578       0x81 ../server1_bsp/\libucosii_bsp.a(netmain.o)
 .debug_loc     0x0000f5f9      0x183 ../server1_bsp/\libucosii_bsp.a(parseip.o)
 .debug_loc     0x0000f77c      0x12f ../server1_bsp/\libucosii_bsp.a(tk_crnos.o)
 .debug_loc     0x0000f8ab      0x35c ../server1_bsp/\libucosii_bsp.a(dhcpclnt.o)
 .debug_loc     0x0000fc07       0x2b ../server1_bsp/\libucosii_bsp.a(dhcputil.o)
 .debug_loc     0x0000fc32      0x102 ../server1_bsp/\libucosii_bsp.a(pktalloc.o)
 .debug_loc     0x0000fd34       0x81 ../server1_bsp/\libucosii_bsp.a(q.o)
 .debug_loc     0x0000fdb5       0x56 ../server1_bsp/\libucosii_bsp.a(udp_open.o)
 .debug_loc     0x0000fe0b      0x158 ../server1_bsp/\libucosii_bsp.a(brdutils.o)
 .debug_loc     0x0000ff63       0xd8 ../server1_bsp/\libucosii_bsp.a(osportco.o)
 .debug_loc     0x0001003b      0x183 ../server1_bsp/\libucosii_bsp.a(targnios.o)
 .debug_loc     0x000101be      0x306 ../server1_bsp/\libucosii_bsp.a(nptcp.o)
 .debug_loc     0x000104c4       0x82 ../server1_bsp/\libucosii_bsp.a(rawsock.o)
 .debug_loc     0x00010546      0x332 ../server1_bsp/\libucosii_bsp.a(sockcall.o)
 .debug_loc     0x00010878      0x2b1 ../server1_bsp/\libucosii_bsp.a(socket.o)
 .debug_loc     0x00010b29      0x3dd ../server1_bsp/\libucosii_bsp.a(socket2.o)
 .debug_loc     0x00010f06      0x184 ../server1_bsp/\libucosii_bsp.a(soselect.o)
 .debug_loc     0x0001108a      0x12e ../server1_bsp/\libucosii_bsp.a(tcp_in.o)
 .debug_loc     0x000111b8       0x82 ../server1_bsp/\libucosii_bsp.a(tcp_out.o)
 .debug_loc     0x0001123a      0x183 ../server1_bsp/\libucosii_bsp.a(tcp_subr.o)
 .debug_loc     0x000113bd       0x81 ../server1_bsp/\libucosii_bsp.a(tcp_timr.o)
 .debug_loc     0x0001143e       0xac ../server1_bsp/\libucosii_bsp.a(tcp_usr.o)
 .debug_loc     0x000114ea       0x2b ../server1_bsp/\libucosii_bsp.a(tcpport.o)
 .debug_loc     0x00011515      0x102 ../server1_bsp/\libucosii_bsp.a(udpsock.o)
 .debug_loc     0x00011617       0x2b ../server1_bsp/\libucosii_bsp.a(alt_alarm_start.o)
 .debug_loc     0x00011642       0x2b ../server1_bsp/\libucosii_bsp.a(alt_busy_sleep.o)
 .debug_loc     0x0001166d       0x56 ../server1_bsp/\libucosii_bsp.a(alt_close.o)
 .debug_loc     0x000116c3       0x2b ../server1_bsp/\libucosii_bsp.a(alt_dcache_flush.o)
 .debug_loc     0x000116ee       0x2b ../server1_bsp/\libucosii_bsp.a(alt_dev.o)
 .debug_loc     0x00011719       0x56 ../server1_bsp/\libucosii_bsp.a(alt_dev_llist_insert.o)
 .debug_loc     0x0001176f       0x2b ../server1_bsp/\libucosii_bsp.a(alt_do_ctors.o)
 .debug_loc     0x0001179a       0x2b ../server1_bsp/\libucosii_bsp.a(alt_do_dtors.o)
 .debug_loc     0x000117c5       0x2b ../server1_bsp/\libucosii_bsp.a(alt_find_dev.o)
 .debug_loc     0x000117f0       0xac ../server1_bsp/\libucosii_bsp.a(alt_iic.o)
 .debug_loc     0x0001189c       0x2b ../server1_bsp/\libucosii_bsp.a(alt_iic_isr_register.o)
 .debug_loc     0x000118c7       0x56 ../server1_bsp/\libucosii_bsp.a(alt_io_redirect.o)
 .debug_loc     0x0001191d       0x2b ../server1_bsp/\libucosii_bsp.a(alt_irq_handler.o)
 .debug_loc     0x00011948       0x81 ../server1_bsp/\libucosii_bsp.a(alt_open.o)
 .debug_loc     0x000119c9       0x56 ../server1_bsp/\libucosii_bsp.a(alt_read.o)
 .debug_loc     0x00011a1f       0x2b ../server1_bsp/\libucosii_bsp.a(alt_release_fd.o)
 .debug_loc     0x00011a4a       0x2b ../server1_bsp/\libucosii_bsp.a(alt_remap_cached.o)
 .debug_loc     0x00011a75       0x2b ../server1_bsp/\libucosii_bsp.a(alt_remap_uncached.o)
 .debug_loc     0x00011aa0       0x56 ../server1_bsp/\libucosii_bsp.a(alt_tick.o)
 .debug_loc     0x00011af6       0x56 ../server1_bsp/\libucosii_bsp.a(alt_write.o)
 .debug_loc     0x00011b4c       0x2b ../server1_bsp/\libucosii_bsp.a(altera_nios2_qsys_irq.o)
 .debug_loc     0x00011b77      0x1ae ../server1_bsp/\libucosii_bsp.a(os_cpu_c.o)
 .debug_loc     0x00011d25       0xac ../server1_bsp/\libucosii_bsp.a(altera_avalon_cfi_flash_amd.o)
 .debug_loc     0x00011dd1       0xac ../server1_bsp/\libucosii_bsp.a(altera_avalon_cfi_flash_intel.o)
 .debug_loc     0x00011e7d       0x2b ../server1_bsp/\libucosii_bsp.a(altera_avalon_spi.o)
 .debug_loc     0x00011ea8      0x12d ../server1_bsp/\libucosii_bsp.a(allports.o)
 .debug_loc     0x00011fd5       0xac ../server1_bsp/\libucosii_bsp.a(timeouts.o)
 .debug_loc     0x00012081       0x56 ../server1_bsp/\libucosii_bsp.a(tk_misc.o)
 .debug_loc     0x000120d7       0x2b ../server1_bsp/\libucosii_bsp.a(alt_iniche_fcntl.o)
 .debug_loc     0x00012102      0x204 ../server1_bsp/\libucosii_bsp.a(et_arp.o)
 .debug_loc     0x00012306       0xac ../server1_bsp/\libucosii_bsp.a(iface.o)
 .debug_loc     0x000123b2      0x207 ../server1_bsp/\libucosii_bsp.a(ip.o)
 .debug_loc     0x000125b9      0x2b2 ../server1_bsp/\libucosii_bsp.a(ip_reasm.o)
 .debug_loc     0x0001286b       0x81 ../server1_bsp/\libucosii_bsp.a(ipdemux.o)
 .debug_loc     0x000128ec       0x81 ../server1_bsp/\libucosii_bsp.a(ipmc.o)
 .debug_loc     0x0001296d       0x81 ../server1_bsp/\libucosii_bsp.a(ipport.o)
 .debug_loc     0x000129ee      0x102 ../server1_bsp/\libucosii_bsp.a(ipraw.o)
 .debug_loc     0x00012af0       0x81 ../server1_bsp/\libucosii_bsp.a(iproute.o)
 .debug_loc     0x00012b71      0x12f ../server1_bsp/\libucosii_bsp.a(udp.o)
 .debug_loc     0x00012ca0       0x2b ../server1_bsp/\libucosii_bsp.a(igmp.o)
 .debug_loc     0x00012ccb       0xd7 ../server1_bsp/\libucosii_bsp.a(igmp2.o)
 .debug_loc     0x00012da2       0xac ../server1_bsp/\libucosii_bsp.a(ipopt.o)
 .debug_loc     0x00012e4e       0x57 ../server1_bsp/\libucosii_bsp.a(u_mctest.o)
 .debug_loc     0x00012ea5       0x56 ../server1_bsp/\libucosii_bsp.a(dhcsetup.o)
 .debug_loc     0x00012efb      0x183 ../server1_bsp/\libucosii_bsp.a(memdev.o)
 .debug_loc     0x0001307e       0x2b ../server1_bsp/\libucosii_bsp.a(tcpcksum.o)
 .debug_loc     0x000130a9      0x158 ../server1_bsp/\libucosii_bsp.a(in_pcb.o)
 .debug_loc     0x00013201      0x4b4 ../server1_bsp/\libucosii_bsp.a(vfsfiles.o)
 .debug_loc     0x000136b5       0x2b ../server1_bsp/\libucosii_bsp.a(vfsport.o)
 .debug_loc     0x000136e0       0x56 ../server1_bsp/\libucosii_bsp.a(alt_fcntl.o)
 .debug_loc     0x00013736       0x2b ../server1_bsp/\libucosii_bsp.a(alt_find_file.o)
 .debug_loc     0x00013761       0x2b ../server1_bsp/\libucosii_bsp.a(alt_get_fd.o)
 .debug_loc     0x0001378c       0xad ../server1_bsp/\libucosii_bsp.a(icmp.o)
 .debug_loc     0x00013839       0x1e c:/altera/13.0sp1/nios2eds/bin/gnu/h-i686-mingw32/bin/../lib/gcc/nios2-elf/4.1.2/../../../../nios2-elf/lib\libc.a(lib_a-atexit.o)
 .debug_loc     0x00013857       0x39 c:/altera/13.0sp1/nios2eds/bin/gnu/h-i686-mingw32/bin/../lib/gcc/nios2-elf/4.1.2/../../../../nios2-elf/lib\libc.a(lib_a-atoi.o)
 .debug_loc     0x00013890       0x3c c:/altera/13.0sp1/nios2eds/bin/gnu/h-i686-mingw32/bin/../lib/gcc/nios2-elf/4.1.2/../../../../nios2-elf/lib\libc.a(lib_a-calloc.o)
 .debug_loc     0x000138cc       0x3c c:/altera/13.0sp1/nios2eds/bin/gnu/h-i686-mingw32/bin/../lib/gcc/nios2-elf/4.1.2/../../../../nios2-elf/lib\libc.a(lib_a-malloc.o)
 .debug_loc     0x00013908      0x114 c:/altera/13.0sp1/nios2eds/bin/gnu/h-i686-mingw32/bin/../lib/gcc/nios2-elf/4.1.2/../../../../nios2-elf/lib\libc.a(lib_a-memcmp.o)
 .debug_loc     0x00013a1c       0x8b c:/altera/13.0sp1/nios2eds/bin/gnu/h-i686-mingw32/bin/../lib/gcc/nios2-elf/4.1.2/../../../../nios2-elf/lib\libc.a(lib_a-strcpy.o)
 .debug_loc     0x00013aa7       0x78 c:/altera/13.0sp1/nios2eds/bin/gnu/h-i686-mingw32/bin/../lib/gcc/nios2-elf/4.1.2/../../../../nios2-elf/lib\libc.a(lib_a-strncmp.o)
 .debug_loc     0x00013b1f       0xeb c:/altera/13.0sp1/nios2eds/bin/gnu/h-i686-mingw32/bin/../lib/gcc/nios2-elf/4.1.2/../../../../nios2-elf/lib\libc.a(lib_a-strncpy.o)
 .debug_loc     0x00013c0a      0x346 c:/altera/13.0sp1/nios2eds/bin/gnu/h-i686-mingw32/bin/../lib/gcc/nios2-elf/4.1.2/../../../../nios2-elf/lib\libc.a(lib_a-strtol.o)
 .debug_loc     0x00013f50       0x8b c:/altera/13.0sp1/nios2eds/bin/gnu/h-i686-mingw32/bin/../lib/gcc/nios2-elf/4.1.2/../../../../nios2-elf/lib\libc.a(lib_a-vprintf.o)
 .debug_loc     0x00013fdb       0xd1 c:/altera/13.0sp1/nios2eds/bin/gnu/h-i686-mingw32/bin/../lib/gcc/nios2-elf/4.1.2/../../../../nios2-elf/lib\libc.a(lib_a-vsprintf.o)
 .debug_loc     0x000140ac      0x120 c:/altera/13.0sp1/nios2eds/bin/gnu/h-i686-mingw32/bin/../lib/gcc/nios2-elf/4.1.2/../../../../nios2-elf/lib\libc.a(lib_a-__atexit.o)

.debug_macinfo
 *(.debug_macinfo)

.debug_weaknames
 *(.debug_weaknames)

.debug_funcnames
 *(.debug_funcnames)

.debug_typenames
 *(.debug_typenames)

.debug_varnames
 *(.debug_varnames)

.debug_alt_sim_info
                0x00000000       0x50
 *(.debug_alt_sim_info)
 .debug_alt_sim_info
                0x00000000       0x20 ../server1_bsp//obj/HAL/src/crt0.o
 .debug_alt_sim_info
                0x00000020       0x30 ../server1_bsp/\libucosii_bsp.a(alt_busy_sleep.o)
                0x01000000                __alt_data_end = 0x1000000
                0x01000000                PROVIDE (__alt_stack_pointer, __alt_data_end)
                0x008582d4                PROVIDE (__alt_stack_limit, __alt_stack_base)
                0x008582d4                PROVIDE (__alt_heap_start, end)
                0x01000000                PROVIDE (__alt_heap_limit, 0x1000000)
OUTPUT(server1.elf elf32-littlenios2)

.debug_ranges   0x00000000      0x9f8
 .debug_ranges  0x00000000       0x18 c:/altera/13.0sp1/nios2eds/bin/gnu/h-i686-mingw32/bin/../lib/gcc/nios2-elf/4.1.2\libgcc.a(_si_to_sf.o)
 .debug_ranges  0x00000018       0x40 c:/altera/13.0sp1/nios2eds/bin/gnu/h-i686-mingw32/bin/../lib/gcc/nios2-elf/4.1.2\libgcc.a(_usi_to_sf.o)
 .debug_ranges  0x00000058       0x30 c:/altera/13.0sp1/nios2eds/bin/gnu/h-i686-mingw32/bin/../lib/gcc/nios2-elf/4.1.2\libgcc.a(_addsub_df.o)
 .debug_ranges  0x00000088       0x88 c:/altera/13.0sp1/nios2eds/bin/gnu/h-i686-mingw32/bin/../lib/gcc/nios2-elf/4.1.2\libgcc.a(_mul_df.o)
 .debug_ranges  0x00000110       0x18 c:/altera/13.0sp1/nios2eds/bin/gnu/h-i686-mingw32/bin/../lib/gcc/nios2-elf/4.1.2\libgcc.a(_usi_to_df.o)
 .debug_ranges  0x00000128       0x68 c:/altera/13.0sp1/nios2eds/bin/gnu/h-i686-mingw32/bin/../lib/gcc/nios2-elf/4.1.2\libgcc.a(_muldi3.o)
 .debug_ranges  0x00000190       0x28 c:/altera/13.0sp1/nios2eds/bin/gnu/h-i686-mingw32/bin/../lib/gcc/nios2-elf/4.1.2\libgcc.a(_clzsi2.o)
 .debug_ranges  0x000001b8       0x28 c:/altera/13.0sp1/nios2eds/bin/gnu/h-i686-mingw32/bin/../lib/gcc/nios2-elf/4.1.2\libgcc.a(_pack_df.o)
 .debug_ranges  0x000001e0      0x168 c:/altera/13.0sp1/nios2eds/bin/gnu/h-i686-mingw32/bin/../lib/gcc/nios2-elf/4.1.2/../../../../nios2-elf/lib\libc.a(lib_a-vfprintf.o)
 .debug_ranges  0x00000348       0x18 c:/altera/13.0sp1/nios2eds/bin/gnu/h-i686-mingw32/bin/../lib/gcc/nios2-elf/4.1.2/../../../../nios2-elf/lib\libc.a(lib_a-__call_atexit.o)
 .debug_ranges  0x00000360       0x20 c:/altera/13.0sp1/nios2eds/bin/gnu/h-i686-mingw32/bin/../lib/gcc/nios2-elf/4.1.2/../../../../nios2-elf/lib\libc.a(lib_a-fflush.o)
 .debug_ranges  0x00000380       0x28 c:/altera/13.0sp1/nios2eds/bin/gnu/h-i686-mingw32/bin/../lib/gcc/nios2-elf/4.1.2/../../../../nios2-elf/lib\libc.a(lib_a-fvwrite.o)
 .debug_ranges  0x000003a8       0xa0 c:/altera/13.0sp1/nios2eds/bin/gnu/h-i686-mingw32/bin/../lib/gcc/nios2-elf/4.1.2/../../../../nios2-elf/lib\libc.a(lib_a-fwalk.o)
 .debug_ranges  0x00000448       0x70 c:/altera/13.0sp1/nios2eds/bin/gnu/h-i686-mingw32/bin/../lib/gcc/nios2-elf/4.1.2/../../../../nios2-elf/lib\libc.a(lib_a-mallocr.o)
 .debug_ranges  0x000004b8      0x110 c:/altera/13.0sp1/nios2eds/bin/gnu/h-i686-mingw32/bin/../lib/gcc/nios2-elf/4.1.2/../../../../nios2-elf/lib\libc.a(lib_a-reallocr.o)
 .debug_ranges  0x000005c8       0x38 c:/altera/13.0sp1/nios2eds/bin/gnu/h-i686-mingw32/bin/../lib/gcc/nios2-elf/4.1.2/../../../../nios2-elf/lib\libc.a(lib_a-callocr.o)
 .debug_ranges  0x00000600      0x188 c:/altera/13.0sp1/nios2eds/bin/gnu/h-i686-mingw32/bin/../lib/gcc/nios2-elf/4.1.2\libgcc.a(_udivdi3.o)
 .debug_ranges  0x00000788      0x198 c:/altera/13.0sp1/nios2eds/bin/gnu/h-i686-mingw32/bin/../lib/gcc/nios2-elf/4.1.2\libgcc.a(_umoddi3.o)
 .debug_ranges  0x00000920       0x50 c:/altera/13.0sp1/nios2eds/bin/gnu/h-i686-mingw32/bin/../lib/gcc/nios2-elf/4.1.2\libgcc.a(_div_df.o)
 .debug_ranges  0x00000970       0x18 ../server1_bsp/\libucosii_bsp.a(altera_avalon_jtag_uart_init.o)
 .debug_ranges  0x00000988       0x18 ../server1_bsp/\libucosii_bsp.a(altera_avalon_uart_init.o)
 .debug_ranges  0x000009a0       0x28 ../server1_bsp/\libucosii_bsp.a(alt_irq_entry.o)
 .debug_ranges  0x000009c8       0x30 ../server1_bsp/\libucosii_bsp.a(alt_exception_entry.o)
